(lp0
ccopy_reg
_reconstructor
p1
(cpbd.command
Command
p2
c__builtin__
object
p3
Ntp4
Rp5
(dp6
S'tilt'
p7
NsS'height'
p8
NsS'alias'
p9
NsS'pose_stamped'
p10
g1
(cgeometry_msgs.msg._PoseStamped
PoseStamped
p11
g3
Ntp12
Rp13
(lp14
g1
(cstd_msgs.msg._Header
Header
p15
g3
Ntp16
Rp17
(lp18
I0
ag1
(cgenpy.rostime
Time
p19
g3
Ntp20
Rp21
(lp22
I0
aI0
abaS'ar_marker_13'
p23
abag1
(cgeometry_msgs.msg._Pose
Pose
p24
g3
Ntp25
Rp26
(lp27
g1
(cgeometry_msgs.msg._Point
Point
p28
g3
Ntp29
Rp30
(lp31
cnumpy.core.multiarray
scalar
p32
(cnumpy
dtype
p33
(S'f8'
p34
I0
I1
tp35
Rp36
(I3
S'<'
p37
NNNI-1
I-1
I0
tp38
bS'\xee\xfc\xdb\x97w|\xc3\xbf'
p39
tp40
Rp41
ag32
(g36
S'\xb8\xecBu\xd0-\xcc\xbf'
p42
tp43
Rp44
ag32
(g36
S'\xa0"\xa3=ip\xab\xbf'
p45
tp46
Rp47
abag1
(cgeometry_msgs.msg._Quaternion
Quaternion
p48
g3
Ntp49
Rp50
(lp51
g32
(g36
S'\x15\xda\xce\xfc\x0e\xb6\xe2?'
p52
tp53
Rp54
ag32
(g36
S'\x18\x02*\x98\xee\xd1\xe9?'
p55
tp56
Rp57
ag32
(g36
S'k\x16\x84\x0e\xb8|\xa7\xbf'
p58
tp59
Rp60
ag32
(g36
S'\xb0%\x14Y\x07\x00\xb2?'
p61
tp62
Rp63
abababsS'type'
p64
I1
sS'pan'
p65
Nsbag1
(g2
g3
Ntp66
Rp67
(dp68
g7
Nsg8
Nsg9
Nsg10
g1
(g11
g3
Ntp69
Rp70
(lp71
g1
(g15
g3
Ntp72
Rp73
(lp74
I0
ag1
(g19
g3
Ntp75
Rp76
(lp77
I0
aI0
abaS'ar_marker_13'
p78
abag1
(g24
g3
Ntp79
Rp80
(lp81
g1
(g28
g3
Ntp82
Rp83
(lp84
g32
(g36
S'\xc6w\xf1\xd9tW\xb8?'
p85
tp86
Rp87
ag32
(g36
S'\xfcTs\x88\xe5\xba\xda\xbf'
p88
tp89
Rp90
ag32
(g36
S'\xe0@\xd8\xc2\te\xa2\xbf'
p91
tp92
Rp93
abag1
(g48
g3
Ntp94
Rp95
(lp96
g32
(g36
S'\xad\x1e\x8c\x8c%\xaa\xd1?'
p97
tp98
Rp99
ag32
(g36
S'\xb7\xd8B\xe7\x84\x91\xee?'
p100
tp101
Rp102
ag32
(g36
S'\xae\x0b\xc1N\x13\xdc\xba\xbf'
p103
tp104
Rp105
ag32
(g36
S'\x82\xdaH%\xd7/\x91\xbf'
p106
tp107
Rp108
abababsg64
I1
sg65
Nsbag1
(g2
g3
Ntp109
Rp110
(dp111
g7
Nsg8
Nsg9
Nsg10
g1
(g11
g3
Ntp112
Rp113
(lp114
g1
(g15
g3
Ntp115
Rp116
(lp117
I0
ag1
(g19
g3
Ntp118
Rp119
(lp120
I0
aI0
abaS'base_link'
p121
abag1
(g24
g3
Ntp122
Rp123
(lp124
g1
(g28
g3
Ntp125
Rp126
(lp127
F0.3254370832747214
aF-0.05102847563466479
aF0.9231186709816432
abag1
(g48
g3
Ntp128
Rp129
(lp130
F-0.903394710401385
aF-0.4171641038968789
aF-0.09922422928862973
aF0.0025806899830949914
abababsg64
I1
sg65
Nsbag1
(g2
g3
Ntp131
Rp132
(dp133
g7
Nsg8
Nsg9
Nsg10
g1
(g11
g3
Ntp134
Rp135
(lp136
g1
(g15
g3
Ntp137
Rp138
(lp139
I0
ag1
(g19
g3
Ntp140
Rp141
(lp142
I0
aI0
abaS'base_link'
p143
abag1
(g24
g3
Ntp144
Rp145
(lp146
g1
(g28
g3
Ntp147
Rp148
(lp149
F0.21960945413380323
aF-0.2500630838547011
aF0.9222752534419819
abag1
(g48
g3
Ntp150
Rp151
(lp152
F-0.9959898706261793
aF-0.0066898214873401555
aF-0.08780078708745084
aF-0.015825475832928117
abababsg64
I1
sg65
Nsba.