(lp0
ccopy_reg
_reconstructor
p1
(cpbd.command
Command
p2
c__builtin__
object
p3
Ntp4
Rp5
(dp6
S'pose_stamped'
p7
g1
(cgeometry_msgs.msg._PoseStamped
PoseStamped
p8
g3
Ntp9
Rp10
(lp11
g1
(cstd_msgs.msg._Header
Header
p12
g3
Ntp13
Rp14
(lp15
I0
ag1
(cgenpy.rostime
Time
p16
g3
Ntp17
Rp18
(lp19
I0
aI0
abaS'base_link'
p20
abag1
(cgeometry_msgs.msg._Pose
Pose
p21
g3
Ntp22
Rp23
(lp24
g1
(cgeometry_msgs.msg._Point
Point
p25
g3
Ntp26
Rp27
(lp28
F0.5606286277394131
aF-0.19616029594803905
aF0.912363330261776
abag1
(cgeometry_msgs.msg._Quaternion
Quaternion
p29
g3
Ntp30
Rp31
(lp32
F-0.04115783240107358
aF-0.09860755993862726
aF0.09031416018068666
aF0.990164599663032
abababsS'alias'
p33
NsS'type'
p34
I1
sbag1
(g2
g3
Ntp35
Rp36
(dp37
g7
g1
(g8
g3
Ntp38
Rp39
(lp40
g1
(g12
g3
Ntp41
Rp42
(lp43
I0
ag1
(g16
g3
Ntp44
Rp45
(lp46
I0
aI0
abaS'base_link'
p47
abag1
(g21
g3
Ntp48
Rp49
(lp50
g1
(g25
g3
Ntp51
Rp52
(lp53
F0.6751774437700994
aF-0.28187623935979295
aF0.8584553433358445
abag1
(g29
g3
Ntp54
Rp55
(lp56
F0.04475684103772536
aF-0.08261590631487684
aF0.014380806048856777
aF0.9954720637072042
abababsg33
Nsg34
I1
sbag1
(g2
g3
Ntp57
Rp58
(dp59
g7
g1
(g8
g3
Ntp60
Rp61
(lp62
g1
(g12
g3
Ntp63
Rp64
(lp65
I0
ag1
(g16
g3
Ntp66
Rp67
(lp68
I0
aI0
abaS'base_link'
p69
abag1
(g21
g3
Ntp70
Rp71
(lp72
g1
(g25
g3
Ntp73
Rp74
(lp75
F0.6921485473118075
aF-0.27463053813397925
aF0.8386913049492051
abag1
(g29
g3
Ntp76
Rp77
(lp78
F0.03811650206019057
aF-0.03973169803063342
aF0.022356516466210286
aF0.998232793798017
abababsg33
Nsg34
I1
sbag1
(g2
g3
Ntp79
Rp80
(dp81
g7
Nsg33
Nsg34
I3
sba.