(lp0
ccopy_reg
_reconstructor
p1
(cpbd.command
Command
p2
c__builtin__
object
p3
Ntp4
Rp5
(dp6
S'pose_stamped'
p7
g1
(cgeometry_msgs.msg._PoseStamped
PoseStamped
p8
g3
Ntp9
Rp10
(lp11
g1
(cstd_msgs.msg._Header
Header
p12
g3
Ntp13
Rp14
(lp15
I0
ag1
(cgenpy.rostime
Time
p16
g3
Ntp17
Rp18
(lp19
I0
aI0
abaS'base_link'
p20
abag1
(cgeometry_msgs.msg._Pose
Pose
p21
g3
Ntp22
Rp23
(lp24
g1
(cgeometry_msgs.msg._Point
Point
p25
g3
Ntp26
Rp27
(lp28
F0.5606286277394131
aF-0.19616029594803905
aF0.912363330261776
abag1
(cgeometry_msgs.msg._Quaternion
Quaternion
p29
g3
Ntp30
Rp31
(lp32
F-0.04115783240107358
aF-0.09860755993862726
aF0.09031416018068666
aF0.990164599663032
abababsS'alias'
p33
NsS'type'
p34
I1
sbag1
(g2
g3
Ntp35
Rp36
(dp37
g7
g1
(g8
g3
Ntp38
Rp39
(lp40
g1
(g12
g3
Ntp41
Rp42
(lp43
I0
ag1
(g16
g3
Ntp44
Rp45
(lp46
I0
aI0
abaS'base_link'
p47
abag1
(g21
g3
Ntp48
Rp49
(lp50
g1
(g25
g3
Ntp51
Rp52
(lp53
F0.6751774437700994
aF-0.28187623935979295
aF0.8584553433358445
abag1
(g29
g3
Ntp54
Rp55
(lp56
F0.04475684103772536
aF-0.08261590631487684
aF0.014380806048856777
aF0.9954720637072042
abababsg33
Nsg34
I1
sbag1
(g2
g3
Ntp57
Rp58
(dp59
g7
g1
(g8
g3
Ntp60
Rp61
(lp62
g1
(g12
g3
Ntp63
Rp64
(lp65
I0
ag1
(g16
g3
Ntp66
Rp67
(lp68
I0
aI0
abaS'base_link'
p69
abag1
(g21
g3
Ntp70
Rp71
(lp72
g1
(g25
g3
Ntp73
Rp74
(lp75
F0.6921485473118075
aF-0.27463053813397925
aF0.8386913049492051
abag1
(g29
g3
Ntp76
Rp77
(lp78
F0.03811650206019057
aF-0.03973169803063342
aF0.022356516466210286
aF0.998232793798017
abababsg33
Nsg34
I1
sbag1
(g2
g3
Ntp79
Rp80
(dp81
g7
Nsg33
Nsg34
I3
sbag1
(g2
g3
Ntp82
Rp83
(dp84
g7
g1
(g8
g3
Ntp85
Rp86
(lp87
g1
(g12
g3
Ntp88
Rp89
(lp90
I0
ag1
(g16
g3
Ntp91
Rp92
(lp93
I0
aI0
abaS'base_link'
p94
abag1
(g21
g3
Ntp95
Rp96
(lp97
g1
(g25
g3
Ntp98
Rp99
(lp100
F0.41407208855673977
aF-0.31334819534950537
aF0.9067568989820834
abag1
(g29
g3
Ntp101
Rp102
(lp103
F0.037157212560780195
aF-0.029834808256039732
aF0.09331825341949201
aF0.9944953138903034
abababsg33
Nsg34
I1
sbag1
(g2
g3
Ntp104
Rp105
(dp106
g7
g1
(g8
g3
Ntp107
Rp108
(lp109
g1
(g12
g3
Ntp110
Rp111
(lp112
I0
ag1
(g16
g3
Ntp113
Rp114
(lp115
I0
aI0
abaS'base_link'
p116
abag1
(g21
g3
Ntp117
Rp118
(lp119
g1
(g25
g3
Ntp120
Rp121
(lp122
F0.4589089859032845
aF-0.08924385398337464
aF0.9067784100878341
abag1
(g29
g3
Ntp123
Rp124
(lp125
F0.05853336423935603
aF-0.008416341736285906
aF0.3741563068426507
aF0.9254782917564675
abababsg33
Nsg34
I1
sbag1
(g2
g3
Ntp126
Rp127
(dp128
g7
g1
(g8
g3
Ntp129
Rp130
(lp131
g1
(g12
g3
Ntp132
Rp133
(lp134
I0
ag1
(g16
g3
Ntp135
Rp136
(lp137
I0
aI0
abaS'base_link'
p138
abag1
(g21
g3
Ntp139
Rp140
(lp141
g1
(g25
g3
Ntp142
Rp143
(lp144
F0.35211189978995394
aF-0.32696857543781205
aF0.9481251496443912
abag1
(g29
g3
Ntp145
Rp146
(lp147
F0.0284965844326255
aF-0.039562345116872705
aF0.0778871450281608
aF0.9957692293718914
abababsg33
Nsg34
I1
sbag1
(g2
g3
Ntp148
Rp149
(dp150
g7
g1
(g8
g3
Ntp151
Rp152
(lp153
g1
(g12
g3
Ntp154
Rp155
(lp156
I0
ag1
(g16
g3
Ntp157
Rp158
(lp159
I0
aI0
abaS'base_link'
p160
abag1
(g21
g3
Ntp161
Rp162
(lp163
g1
(g25
g3
Ntp164
Rp165
(lp166
F0.5439208799376489
aF0.1279261236505293
aF0.9307738436895707
abag1
(g29
g3
Ntp167
Rp168
(lp169
F0.0847156193148025
aF-0.045798630390277095
aF0.17929193369802182
aF0.9790710657604527
abababsg33
Nsg34
I1
sbag1
(g2
g3
Ntp170
Rp171
(dp172
g7
g1
(g8
g3
Ntp173
Rp174
(lp175
g1
(g12
g3
Ntp176
Rp177
(lp178
I0
ag1
(g16
g3
Ntp179
Rp180
(lp181
I0
aI0
abaS'base_link'
p182
abag1
(g21
g3
Ntp183
Rp184
(lp185
g1
(g25
g3
Ntp186
Rp187
(lp188
F0.72697875452777
aF0.1675678096871067
aF0.9203830722129556
abag1
(g29
g3
Ntp189
Rp190
(lp191
F0.04948931354753079
aF-0.04596984920021107
aF0.1744488557868214
aF0.9823467705061045
abababsg33
Nsg34
I1
sbag1
(g2
g3
Ntp192
Rp193
(dp194
g7
g1
(g8
g3
Ntp195
Rp196
(lp197
g1
(g12
g3
Ntp198
Rp199
(lp200
I0
ag1
(g16
g3
Ntp201
Rp202
(lp203
I0
aI0
abaS'base_link'
p204
abag1
(g21
g3
Ntp205
Rp206
(lp207
g1
(g25
g3
Ntp208
Rp209
(lp210
F0.7279937912242138
aF0.1663091897402943
aF0.9133791525949448
abag1
(g29
g3
Ntp211
Rp212
(lp213
F0.045015123317785115
aF-0.02057613481272929
aF0.17050474305612356
aF0.9841129985648085
abababsg33
Nsg34
I1
sbag1
(g2
g3
Ntp214
Rp215
(dp216
g7
Nsg33
Nsg34
I2
sbag1
(g2
g3
Ntp217
Rp218
(dp219
g7
g1
(g8
g3
Ntp220
Rp221
(lp222
g1
(g12
g3
Ntp223
Rp224
(lp225
I0
ag1
(g16
g3
Ntp226
Rp227
(lp228
I0
aI0
abaS'base_link'
p229
abag1
(g21
g3
Ntp230
Rp231
(lp232
g1
(g25
g3
Ntp233
Rp234
(lp235
F0.54780777621875
aF0.08071722968756638
aF0.9412568989200245
abag1
(g29
g3
Ntp236
Rp237
(lp238
F0.07359215506929509
aF0.00025622740337483694
aF0.12802802232794727
aF0.9890363767620325
abababsg33
Nsg34
I1
sba.