(lp0
ccopy_reg
_reconstructor
p1
(cpbd.command
Command
p2
c__builtin__
object
p3
Ntp4
Rp5
(dp6
S'pose_stamped'
p7
g1
(cgeometry_msgs.msg._PoseStamped
PoseStamped
p8
g3
Ntp9
Rp10
(lp11
g1
(cstd_msgs.msg._Header
Header
p12
g3
Ntp13
Rp14
(lp15
I0
ag1
(cgenpy.rostime
Time
p16
g3
Ntp17
Rp18
(lp19
I0
aI0
abaS'base_link'
p20
abag1
(cgeometry_msgs.msg._Pose
Pose
p21
g3
Ntp22
Rp23
(lp24
g1
(cgeometry_msgs.msg._Point
Point
p25
g3
Ntp26
Rp27
(lp28
F0.35982147276716164
aF-0.3023136926616694
aF0.9575742366221083
abag1
(cgeometry_msgs.msg._Quaternion
Quaternion
p29
g3
Ntp30
Rp31
(lp32
F0.9765236158693131
aF0.06056498168835306
aF0.04484096063080871
aF0.20179890706422918
abababsS'alias'
p33
NsS'type'
p34
I1
sbag1
(g2
g3
Ntp35
Rp36
(dp37
g7
g1
(g8
g3
Ntp38
Rp39
(lp40
g1
(g12
g3
Ntp41
Rp42
(lp43
I0
ag1
(g16
g3
Ntp44
Rp45
(lp46
I0
aI0
abaS'ar_marker_13'
p47
abag1
(g21
g3
Ntp48
Rp49
(lp50
g1
(g25
g3
Ntp51
Rp52
(lp53
cnumpy.core.multiarray
scalar
p54
(cnumpy
dtype
p55
(S'f8'
p56
I0
I1
tp57
Rp58
(I3
S'<'
p59
NNNI-1
I-1
I0
tp60
bS'n\x01\xde8\xb1\xd1\xbd?'
p61
tp62
Rp63
ag54
(g58
S'\xb8@K\xdb\x063\xd6\xbf'
p64
tp65
Rp66
ag54
(g58
S'\xa4\xc6\xf6\xd3t\xd8\xc2\xbf'
p67
tp68
Rp69
abag1
(g29
g3
Ntp70
Rp71
(lp72
g54
(g58
S'\x7f\x80\xdfU\xdb \xe4?'
p73
tp74
Rp75
ag54
(g58
S'X\x05{\xa0[y\xe8?'
p76
tp77
Rp78
ag54
(g58
S'\xaf\xdf\xca\xaa\xefW\xbd\xbf'
p79
tp80
Rp81
ag54
(g58
S'T\x0f\x98m\xc5C\xb4?'
p82
tp83
Rp84
abababsg33
Nsg34
I1
sbag1
(g2
g3
Ntp85
Rp86
(dp87
g7
g1
(g8
g3
Ntp88
Rp89
(lp90
g1
(g12
g3
Ntp91
Rp92
(lp93
I0
ag1
(g16
g3
Ntp94
Rp95
(lp96
I0
aI0
abaS'ar_marker_13'
p97
abag1
(g21
g3
Ntp98
Rp99
(lp100
g1
(g25
g3
Ntp101
Rp102
(lp103
g54
(g58
S'&w\xe8\x95lI\xb5?'
p104
tp105
Rp106
ag54
(g58
S'v\xf7w\xb3\x9e\xe4\xd4\xbf'
p107
tp108
Rp109
ag54
(g58
S'\x90\x136sq\xf7\xc4\xbf'
p110
tp111
Rp112
abag1
(g29
g3
Ntp113
Rp114
(lp115
g54
(g58
S'\t\x98\xd2\tZ\xab\xe4?'
p116
tp117
Rp118
ag54
(g58
S'\x80\xd6\xb0\x97\xfa \xe8?'
p119
tp120
Rp121
ag54
(g58
S'\x99\xde\xad2\x81\x8e\xb6\xbf'
p122
tp123
Rp124
ag54
(g58
S'\xafi\xb9\x14\x98\x98\xb4?'
p125
tp126
Rp127
abababsg33
Nsg34
I1
sbag1
(g2
g3
Ntp128
Rp129
(dp130
g7
g1
(g8
g3
Ntp131
Rp132
(lp133
g1
(g12
g3
Ntp134
Rp135
(lp136
I0
ag1
(g16
g3
Ntp137
Rp138
(lp139
I0
aI0
abaS'base_link'
p140
abag1
(g21
g3
Ntp141
Rp142
(lp143
g1
(g25
g3
Ntp144
Rp145
(lp146
F0.364266955610349
aF-0.20937885029120937
aF0.8896275682553044
abag1
(g29
g3
Ntp147
Rp148
(lp149
F0.9980757520489909
aF0.03361888277982833
aF0.05029568429096627
aF0.013598089357713922
abababsg33
Nsg34
I1
sba.