(lp0
ccopy_reg
_reconstructor
p1
(cpbd.command
Command
p2
c__builtin__
object
p3
Ntp4
Rp5
(dp6
S'pose_stamped'
p7
g1
(cgeometry_msgs.msg._PoseStamped
PoseStamped
p8
g3
Ntp9
Rp10
(lp11
g1
(cstd_msgs.msg._Header
Header
p12
g3
Ntp13
Rp14
(lp15
I0
ag1
(cgenpy.rostime
Time
p16
g3
Ntp17
Rp18
(lp19
I0
aI0
abaS'ar_marker_13'
p20
abag1
(cgeometry_msgs.msg._Pose
Pose
p21
g3
Ntp22
Rp23
(lp24
g1
(cgeometry_msgs.msg._Point
Point
p25
g3
Ntp26
Rp27
(lp28
cnumpy.core.multiarray
scalar
p29
(cnumpy
dtype
p30
(S'f8'
p31
I0
I1
tp32
Rp33
(I3
S'<'
p34
NNNI-1
I-1
I0
tp35
bS'c\xa6Xc\x1cG\xd6\xbf'
p36
tp37
Rp38
ag29
(g33
S'$\x14-\x9c&8\xd1\xbf'
p39
tp40
Rp41
ag29
(g33
S'\x80\x86/>h\xaf\xa1\xbf'
p42
tp43
Rp44
abag1
(cgeometry_msgs.msg._Quaternion
Quaternion
p45
g3
Ntp46
Rp47
(lp48
g29
(g33
S'\xe1\xe5\x0c%\xd6Y\xef?'
p49
tp50
Rp51
ag29
(g33
S'X+A\xaaJ\xb3\xbc?'
p52
tp53
Rp54
ag29
(g33
S"\xb5\xcf'+\x98\xba\xc4\xbf"
p55
tp56
Rp57
ag29
(g33
S'GO6\xef\x80\xe3\xa2\xbf'
p58
tp59
Rp60
abababsS'alias'
p61
NsS'type'
p62
I1
sbag1
(g2
g3
Ntp63
Rp64
(dp65
g7
g1
(g8
g3
Ntp66
Rp67
(lp68
g1
(g12
g3
Ntp69
Rp70
(lp71
I0
ag1
(g16
g3
Ntp72
Rp73
(lp74
I0
aI0
abaS'ar_marker_13'
p75
abag1
(g21
g3
Ntp76
Rp77
(lp78
g1
(g25
g3
Ntp79
Rp80
(lp81
g29
(g33
S'\xfa\x11\xa0anE\xd3\xbf'
p82
tp83
Rp84
ag29
(g33
S'x\x10\x0b\x06I\xb5\xd0\xbf'
p85
tp86
Rp87
ag29
(g33
S'8|6a\xffm\xb3\xbf'
p88
tp89
Rp90
abag1
(g45
g3
Ntp91
Rp92
(lp93
g29
(g33
S'\xdavP?\xba\x17\xef?'
p94
tp95
Rp96
ag29
(g33
S'\xe0\x0bn\xe1\x95\xf1\xc8?'
p97
tp98
Rp99
ag29
(g33
S'"\x0b\xda\'$\xcf\xc0\xbf'
p100
tp101
Rp102
ag29
(g33
S'\xb1\x19\t\xb6\xc4\xc0\x9a\xbf'
p103
tp104
Rp105
abababsg61
Nsg62
I1
sbag1
(g2
g3
Ntp106
Rp107
(dp108
g7
g1
(g8
g3
Ntp109
Rp110
(lp111
g1
(g12
g3
Ntp112
Rp113
(lp114
I0
ag1
(g16
g3
Ntp115
Rp116
(lp117
I0
aI0
abaS'base_link'
p118
abag1
(g21
g3
Ntp119
Rp120
(lp121
g1
(g25
g3
Ntp122
Rp123
(lp124
F0.5432506626875593
aF0.2327772512341302
aF0.950202753764281
abag1
(g45
g3
Ntp125
Rp126
(lp127
F0.6363496656204172
aF-0.7586196241712648
aF0.12349498677363546
aF-0.06560759962696326
abababsg61
Nsg62
I1
sba.