ccopy_reg
_reconstructor
p0
(cpbd.program
Program
p1
c__builtin__
object
p2
Ntp3
Rp4
(dp5
S'commands'
p6
(lp7
g0
(cpbd.command
Command
p8
g2
Ntp9
Rp10
(dp11
S'pose_stamped'
p12
g0
(cgeometry_msgs.msg._PoseStamped
PoseStamped
p13
g2
Ntp14
Rp15
(lp16
g0
(cstd_msgs.msg._Header
Header
p17
g2
Ntp18
Rp19
(lp20
I0
ag0
(cgenpy.rostime
Time
p21
g2
Ntp22
Rp23
(lp24
I0
aI0
abaS'ar_marker_15'
p25
abag0
(cgeometry_msgs.msg._Pose
Pose
p26
g2
Ntp27
Rp28
(lp29
g0
(cgeometry_msgs.msg._Point
Point
p30
g2
Ntp31
Rp32
(lp33
cnumpy.core.multiarray
scalar
p34
(cnumpy
dtype
p35
(S'f8'
p36
I0
I1
tp37
Rp38
(I3
S'<'
p39
NNNI-1
I-1
I0
tp40
bS'N\x1ff\x97Pe\xe3?'
p41
tp42
Rp43
ag34
(g38
S')\xb3\x9cN\x1dr\xd9?'
p44
tp45
Rp46
ag34
(g38
S'\x80\xdb_\xb1\xdf1\x97\xbf'
p47
tp48
Rp49
abag0
(cgeometry_msgs.msg._Quaternion
Quaternion
p50
g2
Ntp51
Rp52
(lp53
g34
(g38
S"\xcb\xe3'?Gs\xb2?"
p54
tp55
Rp56
ag34
(g38
S'\xe7_\x88_\x06\x86\xda\xbf'
p57
tp58
Rp59
ag34
(g38
S'K\x164\xb5\xd1\x7f\xea?'
p60
tp61
Rp62
ag34
(g38
S'\xe5-\xf4^\xe7\xb6\xd7?'
p63
tp64
Rp65
abababsS'alias'
p66
NsS'type'
p67
I1
sbag0
(g8
g2
Ntp68
Rp69
(dp70
g12
g0
(g13
g2
Ntp71
Rp72
(lp73
g0
(g17
g2
Ntp74
Rp75
(lp76
I0
ag0
(g21
g2
Ntp77
Rp78
(lp79
I0
aI0
abaS'ar_marker_15'
p80
abag0
(g26
g2
Ntp81
Rp82
(lp83
g0
(g30
g2
Ntp84
Rp85
(lp86
g34
(g38
S'\x02Ux\xc1\x94\x1e\xd7?'
p87
tp88
Rp89
ag34
(g38
S'\xee\x99\xbaX\xb2\xf2\xc5?'
p90
tp91
Rp92
ag34
(g38
S' \xd9\xdfI\x9f\xef\x96\xbf'
p93
tp94
Rp95
abag0
(g50
g2
Ntp96
Rp97
(lp98
g34
(g38
S'?\\\xa8Z\xb8\x1f\xc4?'
p99
tp100
Rp101
ag34
(g38
S'\xd4\xa9\xbe6\xd4\xec\xd5\xbf'
p102
tp103
Rp104
ag34
(g38
S'-\xe4\xd5v\xd7;\xed?'
p105
tp106
Rp107
ag34
(g38
S'\xe8N\xc1\xea\xff\x8d\xc3?'
p108
tp109
Rp110
abababsg66
Nsg67
I1
sbasb.