ccopy_reg
_reconstructor
p0
(c__main__
Program
p1
c__builtin__
object
p2
Ntp3
Rp4
(dp5
S'commands'
p6
(lp7
g0
(c__main__
Command
p8
g2
Ntp9
Rp10
(dp11
S'pose_stamped'
p12
g0
(cgeometry_msgs.msg._PoseStamped
PoseStamped
p13
g2
Ntp14
Rp15
(lp16
g0
(cstd_msgs.msg._Header
Header
p17
g2
Ntp18
Rp19
(lp20
I0
ag0
(cgenpy.rostime
Time
p21
g2
Ntp22
Rp23
(lp24
I0
aI0
abaS'base_link'
p25
abag0
(cgeometry_msgs.msg._Pose
Pose
p26
g2
Ntp27
Rp28
(lp29
g0
(cgeometry_msgs.msg._Point
Point
p30
g2
Ntp31
Rp32
(lp33
F0.40805710538285994
aF-0.27480147978537406
aF0.9095116021675433
abag0
(cgeometry_msgs.msg._Quaternion
Quaternion
p34
g2
Ntp35
Rp36
(lp37
F0.05261965954284313
aF-0.03819424136272524
aF-0.6301838328538325
aF-0.773718752626543
abababsS'type'
p38
I1
sbag0
(g8
g2
Ntp39
Rp40
(dp41
g12
Nsg38
I2
sbag0
(g8
g2
Ntp42
Rp43
(dp44
g12
Nsg38
I3
sbag0
(g8
g2
Ntp45
Rp46
(dp47
g12
g0
(g13
g2
Ntp48
Rp49
(lp50
g0
(g17
g2
Ntp51
Rp52
(lp53
I0
ag0
(g21
g2
Ntp54
Rp55
(lp56
I0
aI0
abaS'ar_marker_15'
p57
abag0
(g26
g2
Ntp58
Rp59
(lp60
g0
(g30
g2
Ntp61
Rp62
(lp63
cnumpy.core.multiarray
scalar
p64
(cnumpy
dtype
p65
(S'f8'
p66
I0
I1
tp67
Rp68
(I3
S'<'
p69
NNNI-1
I-1
I0
tp70
bS'\x9c\xdf\xcb\xa7\x15u\xca?'
p71
tp72
Rp73
ag64
(g68
S'\x08\xf2LB\xd3\x98\xab\xbf'
p74
tp75
Rp76
ag64
(g68
S',\x03\x92j\xc8\x0f\xc2?'
p77
tp78
Rp79
abag0
(g34
g2
Ntp80
Rp81
(lp82
g64
(g68
S'G\xa8\xc4\xc6=\x98\xb1\xbf'
p83
tp84
Rp85
ag64
(g68
S'+d`\xa1\x836\x93\xbf'
p86
tp87
Rp88
ag64
(g68
S'@\xf9\x91\xca1\x90\xef?'
p89
tp90
Rp91
ag64
(g68
S'\xe3\xde\xa7\xa2\x0f\x00\xc3?'
p92
tp93
Rp94
abababsg38
I1
sbag0
(g8
g2
Ntp95
Rp96
(dp97
g12
g0
(g13
g2
Ntp98
Rp99
(lp100
g0
(g17
g2
Ntp101
Rp102
(lp103
I0
ag0
(g21
g2
Ntp104
Rp105
(lp106
I0
aI0
abaS'ar_marker_15'
p107
abag0
(g26
g2
Ntp108
Rp109
(lp110
g0
(g30
g2
Ntp111
Rp112
(lp113
g64
(g68
S'vL]\xd9\xee\x05\xc7?'
p114
tp115
Rp116
ag64
(g68
S' \xcb=\x97\x9e\x91\xad\xbf'
p117
tp118
Rp119
ag64
(g68
S'\x8a\x0f\xe2\xe0\x97\xf2\xd4?'
p120
tp121
Rp122
abag0
(g34
g2
Ntp123
Rp124
(lp125
g64
(g68
S'g~\xb6H\xe1\xc3\xb1\xbf'
p126
tp127
Rp128
ag64
(g68
S'\x82\n\xc1\xb7\x18\x88\x95\xbf'
p129
tp130
Rp131
ag64
(g68
S'\xc5y\xaf\x04\x1f\x95\xef?'
p132
tp133
Rp134
ag64
(g68
S'\xd1\xc5\x0bC\x8ef\xc2?'
p135
tp136
Rp137
abababsg38
I1
sbasb.