ccopy_reg
_reconstructor
p0
(cpbd.program
Program
p1
c__builtin__
object
p2
Ntp3
Rp4
(dp5
S'commands'
p6
(lp7
g0
(cpbd.command
Command
p8
g2
Ntp9
Rp10
(dp11
S'pose_stamped'
p12
g0
(cgeometry_msgs.msg._PoseStamped
PoseStamped
p13
g2
Ntp14
Rp15
(lp16
g0
(cstd_msgs.msg._Header
Header
p17
g2
Ntp18
Rp19
(lp20
I0
ag0
(cgenpy.rostime
Time
p21
g2
Ntp22
Rp23
(lp24
I0
aI0
abaS'base_link'
p25
abag0
(cgeometry_msgs.msg._Pose
Pose
p26
g2
Ntp27
Rp28
(lp29
g0
(cgeometry_msgs.msg._Point
Point
p30
g2
Ntp31
Rp32
(lp33
F0.5186319092643734
aF-0.22765410297066938
aF0.8685465104534527
abag0
(cgeometry_msgs.msg._Quaternion
Quaternion
p34
g2
Ntp35
Rp36
(lp37
F0.07834232374285897
aF-0.006790026032660313
aF-0.10378838047378919
aF-0.9914859292676182
abababsS'alias'
p38
NsS'type'
p39
I1
sbag0
(g8
g2
Ntp40
Rp41
(dp42
g12
g0
(g13
g2
Ntp43
Rp44
(lp45
g0
(g17
g2
Ntp46
Rp47
(lp48
I0
ag0
(g21
g2
Ntp49
Rp50
(lp51
I0
aI0
abaS'base_link'
p52
abag0
(g26
g2
Ntp53
Rp54
(lp55
g0
(g30
g2
Ntp56
Rp57
(lp58
F0.4808684361877547
aF0.010483759698046631
aF0.8651130509744615
abag0
(g34
g2
Ntp59
Rp60
(lp61
F-0.04247902906145008
aF0.11167064683577417
aF-0.2402837145382664
aF-0.9633218233035983
abababsg38
Nsg39
I1
sbag0
(g8
g2
Ntp62
Rp63
(dp64
g12
g0
(g13
g2
Ntp65
Rp66
(lp67
g0
(g17
g2
Ntp68
Rp69
(lp70
I0
ag0
(g21
g2
Ntp71
Rp72
(lp73
I0
aI0
abaS'base_link'
p74
abag0
(g26
g2
Ntp75
Rp76
(lp77
g0
(g30
g2
Ntp78
Rp79
(lp80
F0.4075483042213796
aF0.18153266560029876
aF0.8417282880179078
abag0
(g34
g2
Ntp81
Rp82
(lp83
F0.012095453077889244
aF0.1823503264724494
aF-0.22790533230604676
aF-0.9563792228800783
abababsg38
Nsg39
I1
sbag0
(g8
g2
Ntp84
Rp85
(dp86
g12
g0
(g13
g2
Ntp87
Rp88
(lp89
g0
(g17
g2
Ntp90
Rp91
(lp92
I0
ag0
(g21
g2
Ntp93
Rp94
(lp95
I0
aI0
abaS'base_link'
p96
abag0
(g26
g2
Ntp97
Rp98
(lp99
g0
(g30
g2
Ntp100
Rp101
(lp102
F0.438452612016266
aF-0.3906766656560885
aF0.8829981675109728
abag0
(g34
g2
Ntp103
Rp104
(lp105
F0.17183622916496905
aF0.19708061504295754
aF0.07422057858905212
aF-0.962352766523046
abababsg38
Nsg39
I1
sbasS'orientation_constraint'
p106
Nsb.