(lp0
ccopy_reg
_reconstructor
p1
(cpbd.command
Command
p2
c__builtin__
object
p3
Ntp4
Rp5
(dp6
S'tilt'
p7
NsS'height'
p8
NsS'alias'
p9
S'food_id'
p10
sS'pose_stamped'
p11
g1
(cgeometry_msgs.msg._PoseStamped
PoseStamped
p12
g3
Ntp13
Rp14
(lp15
g1
(cstd_msgs.msg._Header
Header
p16
g3
Ntp17
Rp18
(lp19
I0
ag1
(cgenpy.rostime
Time
p20
g3
Ntp21
Rp22
(lp23
I0
aI0
abaS'ar_marker_10'
p24
abag1
(cgeometry_msgs.msg._Pose
Pose
p25
g3
Ntp26
Rp27
(lp28
g1
(cgeometry_msgs.msg._Point
Point
p29
g3
Ntp30
Rp31
(lp32
cnumpy.core.multiarray
scalar
p33
(cnumpy
dtype
p34
(S'f8'
p35
I0
I1
tp36
Rp37
(I3
S'<'
p38
NNNI-1
I-1
I0
tp39
bS'`\x0c\xdf)=\xfe\xdd\xbf'
p40
tp41
Rp42
ag33
(g37
S'@\x02\x97\xe9\xf7\x8a\x89?'
p43
tp44
Rp45
ag33
(g37
S'\xc0\x9d\xd2:P\x10\x95?'
p46
tp47
Rp48
abag1
(cgeometry_msgs.msg._Quaternion
Quaternion
p49
g3
Ntp50
Rp51
(lp52
g33
(g37
S'O\xa7\xf9\xd3y\xfa\xef?'
p53
tp54
Rp55
ag33
(g37
S'\xb9\xef\x95\xa9q\x83\x93\xbf'
p56
tp57
Rp58
ag33
(g37
S'\xee\x8c\xaa\x80e\xf4t?'
p59
tp60
Rp61
ag33
(g37
S'\xa8\xf9T\x8a\x91\xb5\x9f?'
p62
tp63
Rp64
abababsS'type'
p65
I1
sS'pan'
p66
Nsbag1
(g2
g3
Ntp67
Rp68
(dp69
g7
Nsg8
Nsg9
S'food_id'
p70
sg11
g1
(g12
g3
Ntp71
Rp72
(lp73
g1
(g16
g3
Ntp74
Rp75
(lp76
I0
ag1
(g20
g3
Ntp77
Rp78
(lp79
I0
aI0
abaS'ar_marker_10'
p80
abag1
(g25
g3
Ntp81
Rp82
(lp83
g1
(g29
g3
Ntp84
Rp85
(lp86
g33
(g37
S'\xa7\xc2eD\x8d\xd2\xda\xbf'
p87
tp88
Rp89
ag33
(g37
S'\xa0\x06\xcb\xa9\xc21\x82?'
p90
tp91
Rp92
ag33
(g37
S'P\x9c\xf0c\xc7\x16\xab\xbf'
p93
tp94
Rp95
abag1
(g49
g3
Ntp96
Rp97
(lp98
g33
(g37
S'\x1fleD0\xf9\xef?'
p99
tp100
Rp101
ag33
(g37
S'RNic\xb1\xde\x9e\xbf'
p102
tp103
Rp104
ag33
(g37
S'\xe4/\xce\xc7\x13K\x9b?'
p105
tp106
Rp107
ag33
(g37
S'\xf3\xf6\xa9M}\xdfz\xbf'
p108
tp109
Rp110
abababsg65
I1
sg66
Nsbag1
(g2
g3
Ntp111
Rp112
(dp113
g7
Nsg8
Nsg9
S'food_id'
p114
sg11
g1
(g12
g3
Ntp115
Rp116
(lp117
g1
(g16
g3
Ntp118
Rp119
(lp120
I0
ag1
(g20
g3
Ntp121
Rp122
(lp123
I0
aI0
abaS'ar_marker_10'
p124
abag1
(g25
g3
Ntp125
Rp126
(lp127
g1
(g29
g3
Ntp128
Rp129
(lp130
g33
(g37
S'Z\x85\x97CX\xdb\xd4\xbf'
p131
tp132
Rp133
ag33
(g37
S'\x80\x04\xdeU\xf9\xb3y\xbf'
p134
tp135
Rp136
ag33
(g37
S'\xa0\x1c\x87\xe0\xdf\n\xa5\xbf'
p137
tp138
Rp139
abag1
(g49
g3
Ntp140
Rp141
(lp142
g33
(g37
S':\x1f\xa2\xf1\xef\xfd\xef?'
p143
tp144
Rp145
ag33
(g37
S'cSa\x91\x08D\x83?'
p146
tp147
Rp148
ag33
(g37
S'\xa7\xfb\xbcHYr\x94\xbf'
p149
tp150
Rp151
ag33
(g37
S'R\xa1Q.E\x8ep\xbf'
p152
tp153
Rp154
abababsg65
I1
sg66
Nsbag1
(g2
g3
Ntp155
Rp156
(dp157
g7
Nsg8
Nsg9
S'food_id'
p158
sg11
g1
(g12
g3
Ntp159
Rp160
(lp161
g1
(g16
g3
Ntp162
Rp163
(lp164
I0
ag1
(g20
g3
Ntp165
Rp166
(lp167
I0
aI0
abaS'ar_marker_10'
p168
abag1
(g25
g3
Ntp169
Rp170
(lp171
g1
(g29
g3
Ntp172
Rp173
(lp174
g33
(g37
S'\xc8IJ@\x93\xa4\xcf\xbf'
p175
tp176
Rp177
ag33
(g37
S'\xf0`k92\x18\x98?'
p178
tp179
Rp180
ag33
(g37
S'pZ\xf7g@\xe1\xa5\xbf'
p181
tp182
Rp183
abag1
(g49
g3
Ntp184
Rp185
(lp186
g33
(g37
S'\xbbA\x04L,\xf7\xef?'
p187
tp188
Rp189
ag33
(g37
S'\x8c^!A\n\r\xa6\xbf'
p190
tp191
Rp192
ag33
(g37
S'\xbd\x84o\x17\t\xaa\x91\xbf'
p193
tp194
Rp195
ag33
(g37
S'\xd7\xef\x02\xacq\x81S?'
p196
tp197
Rp198
abababsg65
I1
sg66
Nsbag1
(g2
g3
Ntp199
Rp200
(dp201
g7
Nsg8
Nsg9
Nsg11
Nsg65
I3
sg66
Nsbag1
(g2
g3
Ntp202
Rp203
(dp204
g7
Nsg8
Nsg9
Nsg11
g1
(g12
g3
Ntp205
Rp206
(lp207
g1
(g16
g3
Ntp208
Rp209
(lp210
I0
ag1
(g20
g3
Ntp211
Rp212
(lp213
I0
aI0
abaS'base_link'
p214
abag1
(g25
g3
Ntp215
Rp216
(lp217
g1
(g29
g3
Ntp218
Rp219
(lp220
F0.6207864832067437
aF-0.3362876160559036
aF0.889439875482197
abag1
(g49
g3
Ntp221
Rp222
(lp223
F0.9987457841085826
aF-0.014475288008498538
aF0.014307223037663373
aF0.045745252555371214
abababsg65
I1
sg66
Nsbag1
(g2
g3
Ntp224
Rp225
(dp226
g7
Nsg8
Nsg9
Nsg11
g1
(g12
g3
Ntp227
Rp228
(lp229
g1
(g16
g3
Ntp230
Rp231
(lp232
I0
ag1
(g20
g3
Ntp233
Rp234
(lp235
I0
aI0
abaS'base_link'
p236
abag1
(g25
g3
Ntp237
Rp238
(lp239
g1
(g29
g3
Ntp240
Rp241
(lp242
F0.4567117595620505
aF-0.35831373910763253
aF0.8971069582736252
abag1
(g49
g3
Ntp243
Rp244
(lp245
F0.9945989907359924
aF-0.017026236550917475
aF0.06411452937608847
aF0.07982657463990542
abababsg65
I1
sg66
Nsbag1
(g2
g3
Ntp246
Rp247
(dp248
g7
Nsg8
Nsg9
Nsg11
g1
(g12
g3
Ntp249
Rp250
(lp251
g1
(g16
g3
Ntp252
Rp253
(lp254
I0
ag1
(g20
g3
Ntp255
Rp256
(lp257
I0
aI0
abaS'base_link'
p258
abag1
(g25
g3
Ntp259
Rp260
(lp261
g1
(g29
g3
Ntp262
Rp263
(lp264
F0.319005640977788
aF-0.3639906371226012
aF0.9259370482885285
abag1
(g49
g3
Ntp265
Rp266
(lp267
F0.9956589279591337
aF-0.016639879961984377
aF0.03133764812450209
aF0.08604862218620646
abababsg65
I1
sg66
Nsbag1
(g2
g3
Ntp268
Rp269
(dp270
g7
Nsg8
Nsg9
Nsg11
g1
(g12
g3
Ntp271
Rp272
(lp273
g1
(g16
g3
Ntp274
Rp275
(lp276
I0
ag1
(g20
g3
Ntp277
Rp278
(lp279
I0
aI0
abaS'base_link'
p280
abag1
(g25
g3
Ntp281
Rp282
(lp283
g1
(g29
g3
Ntp284
Rp285
(lp286
F0.278714698189925
aF-0.34823815499289856
aF0.9265817187889245
abag1
(g49
g3
Ntp287
Rp288
(lp289
F0.9910882295712519
aF0.088114770739328
aF0.04502202490926958
aF0.08917917725537862
abababsg65
I1
sg66
Nsba.