(lp0
ccopy_reg
_reconstructor
p1
(cpbd.command
Command
p2
c__builtin__
object
p3
Ntp4
Rp5
(dp6
S'pose_stamped'
p7
g1
(cgeometry_msgs.msg._PoseStamped
PoseStamped
p8
g3
Ntp9
Rp10
(lp11
g1
(cstd_msgs.msg._Header
Header
p12
g3
Ntp13
Rp14
(lp15
I0
ag1
(cgenpy.rostime
Time
p16
g3
Ntp17
Rp18
(lp19
I0
aI0
abaS'ar_marker_13'
p20
abag1
(cgeometry_msgs.msg._Pose
Pose
p21
g3
Ntp22
Rp23
(lp24
g1
(cgeometry_msgs.msg._Point
Point
p25
g3
Ntp26
Rp27
(lp28
cnumpy.core.multiarray
scalar
p29
(cnumpy
dtype
p30
(S'f8'
p31
I0
I1
tp32
Rp33
(I3
S'<'
p34
NNNI-1
I-1
I0
tp35
bS'\nY\x08\xb4\x0b\xdf\xc2?'
p36
tp37
Rp38
ag29
(g33
S'-\xc1gO\x9b\xdc\xe0\xbf'
p39
tp40
Rp41
ag29
(g33
S'\xc0\xbb)\x97,\x8b\x95\xbf'
p42
tp43
Rp44
abag1
(cgeometry_msgs.msg._Quaternion
Quaternion
p45
g3
Ntp46
Rp47
(lp48
g29
(g33
S']\x045\xfb\xc1}\xe3?'
p49
tp50
Rp51
ag29
(g33
S'\xdf\x9cV\xc1\x85\x9a\xe8?'
p52
tp53
Rp54
ag29
(g33
S'\x0f\xd0Cz\t\xe0\xbe\xbf'
p55
tp56
Rp57
ag29
(g33
S' \xb6\xd6!\xd4\x89\xc3?'
p58
tp59
Rp60
abababsS'alias'
p61
NsS'type'
p62
I1
sbag1
(g2
g3
Ntp63
Rp64
(dp65
g7
g1
(g8
g3
Ntp66
Rp67
(lp68
g1
(g12
g3
Ntp69
Rp70
(lp71
I0
ag1
(g16
g3
Ntp72
Rp73
(lp74
I0
aI0
abaS'ar_marker_13'
p75
abag1
(g21
g3
Ntp76
Rp77
(lp78
g1
(g25
g3
Ntp79
Rp80
(lp81
g29
(g33
S'\x06\xa8*t}r\xc0?'
p82
tp83
Rp84
ag29
(g33
S'\x8c\xf1\xcb\xd0\xa7\x95\xd4\xbf'
p85
tp86
Rp87
ag29
(g33
S'tG\xe6\xcc\xb0\x13\xc0\xbf'
p88
tp89
Rp90
abag1
(g45
g3
Ntp91
Rp92
(lp93
g29
(g33
S'\x0c\\\xb4\x04\xddF\xe3?'
p94
tp95
Rp96
ag29
(g33
S'\xd1&\xf8l!\xd1\xe8?'
p97
tp98
Rp99
ag29
(g33
S'z\x10P\x17r\xa4\xc1\xbf'
p100
tp101
Rp102
ag29
(g33
S'\x9b\xa1]!\xfc\x86\xc0?'
p103
tp104
Rp105
abababsg61
Nsg62
I1
sbag1
(g2
g3
Ntp106
Rp107
(dp108
g7
g1
(g8
g3
Ntp109
Rp110
(lp111
g1
(g12
g3
Ntp112
Rp113
(lp114
I0
ag1
(g16
g3
Ntp115
Rp116
(lp117
I0
aI0
abaS'ar_marker_13'
p118
abag1
(g21
g3
Ntp119
Rp120
(lp121
g1
(g25
g3
Ntp122
Rp123
(lp124
g29
(g33
S'\x89\x12\xfd\xc7\xda\xbb\xb5?'
p125
tp126
Rp127
ag29
(g33
S' \xa6\x0c\xa2=8\xd3\xbf'
p128
tp129
Rp130
ag29
(g33
S'\x08K\xad`c@\xc2\xbf'
p131
tp132
Rp133
abag1
(g45
g3
Ntp134
Rp135
(lp136
g29
(g33
S'pTFY~\xde\xe4?'
p137
tp138
Rp139
ag29
(g33
S'I\xfay#\xb0\x86\xe7?'
p140
tp141
Rp142
ag29
(g33
S'\xd0\xdc\xf8R\x90\xb9\xc1\xbf'
p143
tp144
Rp145
ag29
(g33
S'\xa1\x0e\x9b`\x00\\\xbf?'
p146
tp147
Rp148
abababsg61
Nsg62
I1
sbag1
(g2
g3
Ntp149
Rp150
(dp151
g7
g1
(g8
g3
Ntp152
Rp153
(lp154
g1
(g12
g3
Ntp155
Rp156
(lp157
I0
ag1
(g16
g3
Ntp158
Rp159
(lp160
I0
aI0
abaS'base_link'
p161
abag1
(g21
g3
Ntp162
Rp163
(lp164
g1
(g25
g3
Ntp165
Rp166
(lp167
F0.4721643038913708
aF-0.10369898735412111
aF0.8946680035561899
abag1
(g45
g3
Ntp168
Rp169
(lp170
F-0.9930216842107907
aF-0.11475692191171077
aF-0.00922655248365245
aF-0.02556666364195494
abababsg61
Nsg62
I1
sba.