(lp0
ccopy_reg
_reconstructor
p1
(cpbd.command
Command
p2
c__builtin__
object
p3
Ntp4
Rp5
(dp6
S'tilt'
p7
NsS'height'
p8
NsS'alias'
p9
NsS'pose_stamped'
p10
g1
(cgeometry_msgs.msg._PoseStamped
PoseStamped
p11
g3
Ntp12
Rp13
(lp14
g1
(cstd_msgs.msg._Header
Header
p15
g3
Ntp16
Rp17
(lp18
I0
ag1
(cgenpy.rostime
Time
p19
g3
Ntp20
Rp21
(lp22
I0
aI0
abaS'ar_marker_13'
p23
abag1
(cgeometry_msgs.msg._Pose
Pose
p24
g3
Ntp25
Rp26
(lp27
g1
(cgeometry_msgs.msg._Point
Point
p28
g3
Ntp29
Rp30
(lp31
cnumpy.core.multiarray
scalar
p32
(cnumpy
dtype
p33
(S'f8'
p34
I0
I1
tp35
Rp36
(I3
S'<'
p37
NNNI-1
I-1
I0
tp38
bS"\xa0\xa7'C\x05\x80\xa5?"
p39
tp40
Rp41
ag32
(g36
S'\xf2\xc1\x01\xe7O\xe9\xdb\xbf'
p42
tp43
Rp44
ag32
(g36
S'\xc4A\xa5z\xaf\xf7\xc1\xbf'
p45
tp46
Rp47
abag1
(cgeometry_msgs.msg._Quaternion
Quaternion
p48
g3
Ntp49
Rp50
(lp51
g32
(g36
S'>\xfaP\xf2B\xb3\xe6?'
p52
tp53
Rp54
ag32
(g36
S'\x8d\xbb\xcci\xd84\xe6?'
p55
tp56
Rp57
ag32
(g36
S'ec\xd9\xab\xc9(\xbb\xbf'
p58
tp59
Rp60
ag32
(g36
S'\x92\xa9Qq\x9e\x18\xb0?'
p61
tp62
Rp63
abababsS'type'
p64
I1
sS'pan'
p65
Nsbag1
(g2
g3
Ntp66
Rp67
(dp68
g7
Nsg8
Nsg9
Nsg10
g1
(g11
g3
Ntp69
Rp70
(lp71
g1
(g15
g3
Ntp72
Rp73
(lp74
I0
ag1
(g19
g3
Ntp75
Rp76
(lp77
I0
aI0
abaS'ar_marker_13'
p78
abag1
(g24
g3
Ntp79
Rp80
(lp81
g1
(g28
g3
Ntp82
Rp83
(lp84
g32
(g36
S'\xe81+\xd5\xda\xf3\xc6?'
p85
tp86
Rp87
ag32
(g36
S',\xc4\xf0\xbe\xb8\x0b\xd7\xbf'
p88
tp89
Rp90
ag32
(g36
S'\xc4\xf1\xaay\xe6\x97\xc2\xbf'
p91
tp92
Rp93
abag1
(g48
g3
Ntp94
Rp95
(lp96
g32
(g36
S'Z;\xafO\xdeY\xe2?'
p97
tp98
Rp99
ag32
(g36
S'\xe2\xfd+\xa1\xdd\xe7\xe9?'
p100
tp101
Rp102
ag32
(g36
S'\xf7\n\x91v\xde\xb5\xb8\xbf'
p103
tp104
Rp105
ag32
(g36
S'\xb5\xee\x0b\xfc\x18\x8a\xb4?'
p106
tp107
Rp108
abababsg64
I1
sg65
Nsbag1
(g2
g3
Ntp109
Rp110
(dp111
g7
Nsg8
Nsg9
Nsg10
g1
(g11
g3
Ntp112
Rp113
(lp114
g1
(g15
g3
Ntp115
Rp116
(lp117
I0
ag1
(g19
g3
Ntp118
Rp119
(lp120
I0
aI0
abaS'ar_marker_13'
p121
abag1
(g24
g3
Ntp122
Rp123
(lp124
g1
(g28
g3
Ntp125
Rp126
(lp127
g32
(g36
S'b\x84\x93 8"\xc5?'
p128
tp129
Rp130
ag32
(g36
S'\xd8U\xca[HY\xd5\xbf'
p131
tp132
Rp133
ag32
(g36
S'\xe8\xf2\x16\xa2&:\xc4\xbf'
p134
tp135
Rp136
abag1
(g48
g3
Ntp137
Rp138
(lp139
g32
(g36
S'<\xbf\xfa\xe9\x1aD\xe2?'
p140
tp141
Rp142
ag32
(g36
S'\xc4\xcfQ\xdf.\x02\xea?'
p143
tp144
Rp145
ag32
(g36
S'\xae\x88tv\x98%\xb1\xbf'
p146
tp147
Rp148
ag32
(g36
S'\xe6:H\xe0hj\xb8?'
p149
tp150
Rp151
abababsg64
I1
sg65
Nsbag1
(g2
g3
Ntp152
Rp153
(dp154
g7
Nsg8
Nsg9
Nsg10
g1
(g11
g3
Ntp155
Rp156
(lp157
g1
(g15
g3
Ntp158
Rp159
(lp160
I0
ag1
(g19
g3
Ntp161
Rp162
(lp163
I0
aI0
abaS'ar_marker_13'
p164
abag1
(g24
g3
Ntp165
Rp166
(lp167
g1
(g28
g3
Ntp168
Rp169
(lp170
g32
(g36
S'\x8c\xbd\xb0\xf1\x1f\x08\xc5?'
p171
tp172
Rp173
ag32
(g36
S'Z)\x13\xd7\xea\x05\xd2\xbf'
p174
tp175
Rp176
ag32
(g36
S'$G\xdc@\xc7(\xc6\xbf'
p177
tp178
Rp179
abag1
(g48
g3
Ntp180
Rp181
(lp182
g32
(g36
S'\x1f\x8bjW\x86N\xe1?'
p183
tp184
Rp185
ag32
(g36
S'^\x9d\xc8\x98\xf6\xb2\xea?'
p186
tp187
Rp188
ag32
(g36
S'h\x0bQ2i\x88}\xbf'
p189
tp190
Rp191
ag32
(g36
S'\x95\x03\x19\x9c\x1e:\xbb?'
p192
tp193
Rp194
abababsg64
I1
sg65
Nsbag1
(g2
g3
Ntp195
Rp196
(dp197
g7
Nsg8
Nsg9
Nsg10
g1
(g11
g3
Ntp198
Rp199
(lp200
g1
(g15
g3
Ntp201
Rp202
(lp203
I0
ag1
(g19
g3
Ntp204
Rp205
(lp206
I0
aI0
abaS'ar_marker_13'
p207
abag1
(g24
g3
Ntp208
Rp209
(lp210
g1
(g28
g3
Ntp211
Rp212
(lp213
g32
(g36
S'\xc7)\xb9\x01h\xcb\xc0?'
p214
tp215
Rp216
ag32
(g36
S'\x80^\x18\xdb2V\xd6\xbf'
p217
tp218
Rp219
ag32
(g36
S'\x18\xc3j\xb8L\xb0\xc3\xbf'
p220
tp221
Rp222
abag1
(g48
g3
Ntp223
Rp224
(lp225
g32
(g36
S':\xfd\x98\xbd\xc6\x06\xe3?'
p226
tp227
Rp228
ag32
(g36
S'\xa37Q\xca@|\xe9?'
p229
tp230
Rp231
ag32
(g36
S'\x9f\x13h\xe8\xd5\x85\xb1\xbf'
p232
tp233
Rp234
ag32
(g36
S'5\x8a\xed\xc4\x080\xb6?'
p235
tp236
Rp237
abababsg64
I1
sg65
Nsbag1
(g2
g3
Ntp238
Rp239
(dp240
g7
Nsg8
Nsg9
Nsg10
g1
(g11
g3
Ntp241
Rp242
(lp243
g1
(g15
g3
Ntp244
Rp245
(lp246
I0
ag1
(g19
g3
Ntp247
Rp248
(lp249
I0
aI0
abaS'base_link'
p250
abag1
(g24
g3
Ntp251
Rp252
(lp253
g1
(g28
g3
Ntp254
Rp255
(lp256
F0.4460219402908889
aF-0.1649418053927814
aF0.8832956089887745
abag1
(g48
g3
Ntp257
Rp258
(lp259
F0.9969878369676003
aF0.06998853125950077
aF0.024636128406071215
aF0.022581399601499085
abababsg64
I1
sg65
Nsba.