(lp0
ccopy_reg
_reconstructor
p1
(cpbd.command
Command
p2
c__builtin__
object
p3
Ntp4
Rp5
(dp6
S'tilt'
p7
NsS'height'
p8
NsS'alias'
p9
NsS'pose_stamped'
p10
g1
(cgeometry_msgs.msg._PoseStamped
PoseStamped
p11
g3
Ntp12
Rp13
(lp14
g1
(cstd_msgs.msg._Header
Header
p15
g3
Ntp16
Rp17
(lp18
I0
ag1
(cgenpy.rostime
Time
p19
g3
Ntp20
Rp21
(lp22
I0
aI0
abaS'base_link'
p23
abag1
(cgeometry_msgs.msg._Pose
Pose
p24
g3
Ntp25
Rp26
(lp27
g1
(cgeometry_msgs.msg._Point
Point
p28
g3
Ntp29
Rp30
(lp31
F0.2783491572775154
aF-0.34820372193338706
aF0.9267942543458193
abag1
(cgeometry_msgs.msg._Quaternion
Quaternion
p32
g3
Ntp33
Rp34
(lp35
F0.991052738091208
aF0.08785919854131202
aF0.044231502029363004
aF0.09021533008211216
abababsS'type'
p36
I1
sS'pan'
p37
Nsbag1
(g2
g3
Ntp38
Rp39
(dp40
g7
Nsg8
Nsg9
Nsg10
g1
(g11
g3
Ntp41
Rp42
(lp43
g1
(g15
g3
Ntp44
Rp45
(lp46
I0
ag1
(g19
g3
Ntp47
Rp48
(lp49
I0
aI0
abaS'ar_marker_13'
p50
abag1
(g24
g3
Ntp51
Rp52
(lp53
g1
(g28
g3
Ntp54
Rp55
(lp56
cnumpy.core.multiarray
scalar
p57
(cnumpy
dtype
p58
(S'f8'
p59
I0
I1
tp60
Rp61
(I3
S'<'
p62
NNNI-1
I-1
I0
tp63
bS'\xf6:j]\xa3\xe1\xd0?'
p64
tp65
Rp66
ag57
(g61
S'N:wHK\xbb\xe2\xbf'
p67
tp68
Rp69
ag57
(g61
S'@xl\xba7d\x8d\xbf'
p70
tp71
Rp72
abag1
(g32
g3
Ntp73
Rp74
(lp75
g57
(g61
S'\xcf\x14\x12r\x04\xda\xde?'
p76
tp77
Rp78
ag57
(g61
S'w\xba\t\xc3[\xee\xeb?'
p79
tp80
Rp81
ag57
(g61
S'2`\x92Ts\xf7\xb0\xbf'
p82
tp83
Rp84
ag57
(g61
S'\xc0\xae\xb7p\x9b\xef\xa2?'
p85
tp86
Rp87
abababsg36
I1
sg37
Nsbag1
(g2
g3
Ntp88
Rp89
(dp90
g7
Nsg8
Nsg9
Nsg10
g1
(g11
g3
Ntp91
Rp92
(lp93
g1
(g15
g3
Ntp94
Rp95
(lp96
I0
ag1
(g19
g3
Ntp97
Rp98
(lp99
I0
aI0
abaS'ar_marker_13'
p100
abag1
(g24
g3
Ntp101
Rp102
(lp103
g1
(g28
g3
Ntp104
Rp105
(lp106
g57
(g61
S'4F\xd7X\xbe\x91\xbd?'
p107
tp108
Rp109
ag57
(g61
S'\x06\x94\x9a\xff\xec4\xe1\xbf'
p110
tp111
Rp112
ag57
(g61
S'\xc0\x12nd\xb4&\x9d\xbf'
p113
tp114
Rp115
abag1
(g32
g3
Ntp116
Rp117
(lp118
g57
(g61
S'`\x9cLP\x14-\xda?'
p119
tp120
Rp121
ag57
(g61
S'00L\xfe<\x11\xed?'
p122
tp123
Rp124
ag57
(g61
S'\xbdr\xda\xa0sO\xb6\xbf'
p125
tp126
Rp127
ag57
(g61
S'\x82\xa7\x0b\xa1\xf0\xfbo\xbf'
p128
tp129
Rp130
abababsg36
I1
sg37
Nsbag1
(g2
g3
Ntp131
Rp132
(dp133
g7
Nsg8
Nsg9
Nsg10
g1
(g11
g3
Ntp134
Rp135
(lp136
g1
(g15
g3
Ntp137
Rp138
(lp139
I0
ag1
(g19
g3
Ntp140
Rp141
(lp142
I0
aI0
abaS'ar_marker_13'
p143
abag1
(g24
g3
Ntp144
Rp145
(lp146
g1
(g28
g3
Ntp147
Rp148
(lp149
g57
(g61
S'X\x89,iJW\x99?'
p150
tp151
Rp152
ag57
(g61
S'Ds\xc0\xd2\xd7\x8f\xdd\xbf'
p153
tp154
Rp155
ag57
(g61
S'\xe0W\xe5N\xc3\x9a\xa7\xbf'
p156
tp157
Rp158
abag1
(g32
g3
Ntp159
Rp160
(lp161
g57
(g61
S'\r\x8a\xc2\xa8\x0e1\xd2?'
p162
tp163
Rp164
ag57
(g61
S'\xbc\xb6\x0b\xf4\x1au\xee?'
p165
tp166
Rp167
ag57
(g61
S'C"\x84\xeb8\xcf\xbc\xbf'
p168
tp169
Rp170
ag57
(g61
S'ux\t=\xf3\xa2\x99\xbf'
p171
tp172
Rp173
abababsg36
I1
sg37
Nsbag1
(g2
g3
Ntp174
Rp175
(dp176
g7
Nsg8
Nsg9
Nsg10
g1
(g11
g3
Ntp177
Rp178
(lp179
g1
(g15
g3
Ntp180
Rp181
(lp182
I0
ag1
(g19
g3
Ntp183
Rp184
(lp185
I0
aI0
abaS'ar_marker_13'
p186
abag1
(g24
g3
Ntp187
Rp188
(lp189
g1
(g28
g3
Ntp190
Rp191
(lp192
g57
(g61
S':\xc1p\xb9\xa7o\x96?'
p193
tp194
Rp195
ag57
(g61
S'r\xc9u\x0c\xc0Q\xd9\xbf'
p196
tp197
Rp198
ag57
(g61
S'\x80\x92\x82%e\xaf\xac\xbf'
p199
tp200
Rp201
abag1
(g32
g3
Ntp202
Rp203
(lp204
g57
(g61
S'\xb4_]\x057V\xd4?'
p205
tp206
Rp207
ag57
(g61
S'\xaf\xa6\xce\x83r-\xee?'
p208
tp209
Rp210
ag57
(g61
S'X(@S\xce\x8b\xb8\xbf'
p211
tp212
Rp213
ag57
(g61
S'\x06\x91X\x12\x8a\xc5\x96?'
p214
tp215
Rp216
abababsg36
I1
sg37
Nsbag1
(g2
g3
Ntp217
Rp218
(dp219
g7
Nsg8
Nsg9
Nsg10
g1
(g11
g3
Ntp220
Rp221
(lp222
g1
(g15
g3
Ntp223
Rp224
(lp225
I0
ag1
(g19
g3
Ntp226
Rp227
(lp228
I0
aI0
abaS'ar_marker_13'
p229
abag1
(g24
g3
Ntp230
Rp231
(lp232
g1
(g28
g3
Ntp233
Rp234
(lp235
g57
(g61
S'\xd8\xb8\xd0p\xb8\xc0\x99\xbf'
p236
tp237
Rp238
ag57
(g61
S'\xb8t\xa6s\x8b5\xd7\xbf'
p239
tp240
Rp241
ag57
(g61
S'\x90)\x00C\x1aj\xaa\xbf'
p242
tp243
Rp244
abag1
(g32
g3
Ntp245
Rp246
(lp247
g57
(g61
S'\x82\xe1\x88\xd0r\x14\xdb?'
p248
tp249
Rp250
ag57
(g61
S':\xf2/\x95\xb5\xd8\xec?'
p251
tp252
Rp253
ag57
(g61
S'\x10\xfc|xi\xf7\xb5\xbf'
p254
tp255
Rp256
ag57
(g61
S'\xaf\x983\xbc\x17\x12\xa0?'
p257
tp258
Rp259
abababsg36
I1
sg37
Nsbag1
(g2
g3
Ntp260
Rp261
(dp262
g7
Nsg8
Nsg9
Nsg10
g1
(g11
g3
Ntp263
Rp264
(lp265
g1
(g15
g3
Ntp266
Rp267
(lp268
I0
ag1
(g19
g3
Ntp269
Rp270
(lp271
I0
aI0
abaS'ar_marker_13'
p272
abag1
(g24
g3
Ntp273
Rp274
(lp275
g1
(g28
g3
Ntp276
Rp277
(lp278
g57
(g61
S'\x10\x8d\x1cb}\x16\xc0\xbf'
p279
tp280
Rp281
ag57
(g61
S'\x9c\xbb\x8a\x9d\x15\xca\xd4\xbf'
p282
tp283
Rp284
ag57
(g61
S'P\xcd\x01\xca\x16s\xb0\xbf'
p285
tp286
Rp287
abag1
(g32
g3
Ntp288
Rp289
(lp290
g57
(g61
S'\xed \xb3\xf72\x8c\xe1?'
p291
tp292
Rp293
ag57
(g61
S'1k\xf1\x976\xab\xea?'
p294
tp295
Rp296
ag57
(g61
S'\xad\xf19#\xdc\xad\xb0\xbf'
p297
tp298
Rp299
ag57
(g61
S'\xa2\x8d]\x11v\xcf\x96?'
p300
tp301
Rp302
abababsg36
I1
sg37
Nsbag1
(g2
g3
Ntp303
Rp304
(dp305
g7
Nsg8
Nsg9
Nsg10
g1
(g11
g3
Ntp306
Rp307
(lp308
g1
(g15
g3
Ntp309
Rp310
(lp311
I0
ag1
(g19
g3
Ntp312
Rp313
(lp314
I0
aI0
abaS'ar_marker_13'
p315
abag1
(g24
g3
Ntp316
Rp317
(lp318
g1
(g28
g3
Ntp319
Rp320
(lp321
g57
(g61
S'B}\xadA\x8f\xfd\xc2\xbf'
p322
tp323
Rp324
ag57
(g61
S'\x88\r\xc6\n3\xa3\xd0\xbf'
p325
tp326
Rp327
ag57
(g61
S"`'\xe1\xaaH\x15\xb9\xbf"
p328
tp329
Rp330
abag1
(g32
g3
Ntp331
Rp332
(lp333
g57
(g61
S'\xa4i\xab!\xa6\x02\xe3?'
p334
tp335
Rp336
ag57
(g61
S'\xf8\xed\xe5\x07\x88\xa4\xe9?'
p337
tp338
Rp339
ag57
(g61
S'\x93\xd9\x19X\xca\xf4\xa9\xbf'
p340
tp341
Rp342
ag57
(g61
S'\x01\xf0\x11\xa6\xe5\xec\xa8?'
p343
tp344
Rp345
abababsg36
I1
sg37
Nsbag1
(g2
g3
Ntp346
Rp347
(dp348
g7
Nsg8
Nsg9
Nsg10
g1
(g11
g3
Ntp349
Rp350
(lp351
g1
(g15
g3
Ntp352
Rp353
(lp354
I0
ag1
(g19
g3
Ntp355
Rp356
(lp357
I0
aI0
abaS'ar_marker_13'
p358
abag1
(g24
g3
Ntp359
Rp360
(lp361
g1
(g28
g3
Ntp362
Rp363
(lp364
g57
(g61
S'\xb3\x16\xbc\xe6&X\xc5\xbf'
p365
tp366
Rp367
ag57
(g61
S'\xf8\x06 \xf2\xc3\x9d\xcb\xbf'
p368
tp369
Rp370
ag57
(g61
S'(o\x86\x1ac\xc0\xbc\xbf'
p371
tp372
Rp373
abag1
(g32
g3
Ntp374
Rp375
(lp376
g57
(g61
S'\xeb\x0bC\t\xbe4\xe3?'
p377
tp378
Rp379
ag57
(g61
S'\x97\x0eu@Ec\xe9?'
p380
tp381
Rp382
ag57
(g61
S'X\xb6\xd1\x1e\x10n\xb8\xbf'
p383
tp384
Rp385
ag57
(g61
S'\xa0({\xe2H\xfd\xa1?'
p386
tp387
Rp388
abababsg36
I1
sg37
Nsbag1
(g2
g3
Ntp389
Rp390
(dp391
g7
Nsg8
Nsg9
Nsg10
g1
(g11
g3
Ntp392
Rp393
(lp394
g1
(g15
g3
Ntp395
Rp396
(lp397
I0
ag1
(g19
g3
Ntp398
Rp399
(lp400
I0
aI0
abaS'ar_marker_13'
p401
abag1
(g24
g3
Ntp402
Rp403
(lp404
g1
(g28
g3
Ntp405
Rp406
(lp407
g57
(g61
S'\xa3\xf3Z\xb5C\x87\xc5\xbf'
p408
tp409
Rp410
ag57
(g61
S'\x98L\xe0\x80P\x8c\xcb\xbf'
p411
tp412
Rp413
ag57
(g61
S'\xccd`9\x86s\xc0\xbf'
p414
tp415
Rp416
abag1
(g32
g3
Ntp417
Rp418
(lp419
g57
(g61
S'\x92\xa8\xbb\xef\x85"\xe3?'
p420
tp421
Rp422
ag57
(g61
S'\xc8\xe41N,j\xe9?'
p423
tp424
Rp425
ag57
(g61
S'\xee\xdb@\x86\xc8u\xb9\xbf'
p426
tp427
Rp428
ag57
(g61
S'0\x9e\tK\xc0\x95\xa5?'
p429
tp430
Rp431
abababsg36
I1
sg37
Nsbag1
(g2
g3
Ntp432
Rp433
(dp434
g7
Nsg8
Nsg9
Nsg10
g1
(g11
g3
Ntp435
Rp436
(lp437
g1
(g15
g3
Ntp438
Rp439
(lp440
I0
ag1
(g19
g3
Ntp441
Rp442
(lp443
I0
aI0
abaS'ar_marker_13'
p444
abag1
(g24
g3
Ntp445
Rp446
(lp447
g1
(g28
g3
Ntp448
Rp449
(lp450
g57
(g61
S'\x89\xd7#\xb8\xfe\x8d\xc5\xbf'
p451
tp452
Rp453
ag57
(g61
S"\x8c\xa8\x08Vm'\xcc\xbf"
p454
tp455
Rp456
ag57
(g61
S'\xfc]\x93\xc3\x9a@\xc1\xbf'
p457
tp458
Rp459
abag1
(g32
g3
Ntp460
Rp461
(lp462
g57
(g61
S'\xda\xc2P\xd5\xd5\xce\xe2?'
p463
tp464
Rp465
ag57
(g61
S'\xe9\x8f\xf9r7\x9b\xe9?'
p466
tp467
Rp468
ag57
(g61
S'f\xbf\xefT\xd3\x9c\xbc\xbf'
p469
tp470
Rp471
ag57
(g61
S'\x14`X\x10\x93a\xa5?'
p472
tp473
Rp474
abababsg36
I1
sg37
Nsbag1
(g2
g3
Ntp475
Rp476
(dp477
g7
Nsg8
Nsg9
Nsg10
g1
(g11
g3
Ntp478
Rp479
(lp480
g1
(g15
g3
Ntp481
Rp482
(lp483
I0
ag1
(g19
g3
Ntp484
Rp485
(lp486
I0
aI0
abaS'ar_marker_13'
p487
abag1
(g24
g3
Ntp488
Rp489
(lp490
g1
(g28
g3
Ntp491
Rp492
(lp493
g57
(g61
S'\xd4\xb7\xf1F\x81\xb8\xc8\xbf'
p494
tp495
Rp496
ag57
(g61
S'0\xb6e\xf1\xca\xd2\xc8\xbf'
p497
tp498
Rp499
ag57
(g61
S'\x04\xb2\xb5\xcc\x93\xe2\xc0\xbf'
p500
tp501
Rp502
abag1
(g32
g3
Ntp503
Rp504
(lp505
g57
(g61
S'\x0e\xd7d1%\xab\xe3?'
p506
tp507
Rp508
ag57
(g61
S'\xe4\xf8~\xde[\xdd\xe8?'
p509
tp510
Rp511
ag57
(g61
S'\x86\x18\xd7\x17\x98\xb9\xc0\xbf'
p512
tp513
Rp514
ag57
(g61
S'\xed\xa1\x0fc\x9d\x05\xa3?'
p515
tp516
Rp517
abababsg36
I1
sg37
Nsbag1
(g2
g3
Ntp518
Rp519
(dp520
g7
Nsg8
Nsg9
Nsg10
Nsg36
I2
sg37
Nsbag1
(g2
g3
Ntp521
Rp522
(dp523
g7
Nsg8
Nsg9
Nsg10
g1
(g11
g3
Ntp524
Rp525
(lp526
g1
(g15
g3
Ntp527
Rp528
(lp529
I0
ag1
(g19
g3
Ntp530
Rp531
(lp532
I0
aI0
abaS'ar_marker_13'
p533
abag1
(g24
g3
Ntp534
Rp535
(lp536
g1
(g28
g3
Ntp537
Rp538
(lp539
g57
(g61
S'\x93\x0e\x13(\x048\xc0\xbf'
p540
tp541
Rp542
ag57
(g61
S'\x18\x81:\xfd\xd6C\xd1\xbf'
p543
tp544
Rp545
ag57
(g61
S'`Tu\x83x\xcd\xbd\xbf'
p546
tp547
Rp548
abag1
(g32
g3
Ntp549
Rp550
(lp551
g57
(g61
S'\xc8\x97\xfel.i\xe1?'
p552
tp553
Rp554
ag57
(g61
S'\xef\x82i\x18\xa1\xa8\xea?'
p555
tp556
Rp557
ag57
(g61
S'=3\xd4a\xdb\xbb\xb7\xbf'
p558
tp559
Rp560
ag57
(g61
S'\xea\xa4\xee\x1a\x8c\xc0\xa2?'
p561
tp562
Rp563
abababsg36
I1
sg37
Nsbag1
(g2
g3
Ntp564
Rp565
(dp566
g7
Nsg8
Nsg9
Nsg10
g1
(g11
g3
Ntp567
Rp568
(lp569
g1
(g15
g3
Ntp570
Rp571
(lp572
I0
ag1
(g19
g3
Ntp573
Rp574
(lp575
I0
aI0
abaS'ar_marker_13'
p576
abag1
(g24
g3
Ntp577
Rp578
(lp579
g1
(g28
g3
Ntp580
Rp581
(lp582
g57
(g61
S'\xb2\xee\xcd\xf6\xc6\xf0\xb6\xbf'
p583
tp584
Rp585
ag57
(g61
S'd;\xc04C\r\xd6\xbf'
p586
tp587
Rp588
ag57
(g61
S'\x00\\=O\rM\xb9\xbf'
p589
tp590
Rp591
abag1
(g32
g3
Ntp592
Rp593
(lp594
g57
(g61
S'\xd0\xf0"\xd9\x14H\xe1?'
p595
tp596
Rp597
ag57
(g61
S'B)\xf0\xadE\xbc\xea?'
p598
tp599
Rp600
ag57
(g61
S'm^C\xcar>\xb9\xbf'
p601
tp602
Rp603
ag57
(g61
S'\xc2\x125\x10`\xec\x98?'
p604
tp605
Rp606
abababsg36
I1
sg37
Nsba.