(lp0
ccopy_reg
_reconstructor
p1
(cpbd.command
Command
p2
c__builtin__
object
p3
Ntp4
Rp5
(dp6
S'tilt'
p7
NsS'height'
p8
NsS'alias'
p9
NsS'pose_stamped'
p10
g1
(cgeometry_msgs.msg._PoseStamped
PoseStamped
p11
g3
Ntp12
Rp13
(lp14
g1
(cstd_msgs.msg._Header
Header
p15
g3
Ntp16
Rp17
(lp18
I0
ag1
(cgenpy.rostime
Time
p19
g3
Ntp20
Rp21
(lp22
I0
aI0
abaS'ar_marker_13'
p23
abag1
(cgeometry_msgs.msg._Pose
Pose
p24
g3
Ntp25
Rp26
(lp27
g1
(cgeometry_msgs.msg._Point
Point
p28
g3
Ntp29
Rp30
(lp31
cnumpy.core.multiarray
scalar
p32
(cnumpy
dtype
p33
(S'f8'
p34
I0
I1
tp35
Rp36
(I3
S'<'
p37
NNNI-1
I-1
I0
tp38
bS'fB\xb8t@\x1b\xcd?'
p39
tp40
Rp41
ag32
(g36
S'\\\x0b9\xf4\xdeW\xe1\xbf'
p42
tp43
Rp44
ag32
(g36
S'\x00x\xb0?\xf9\x9a4\xbf'
p45
tp46
Rp47
abag1
(cgeometry_msgs.msg._Quaternion
Quaternion
p48
g3
Ntp49
Rp50
(lp51
g32
(g36
S'\xd7G\x18%\xd6\xdb\xe5?'
p52
tp53
Rp54
ag32
(g36
S'\xf3\xe0+X%3\xe7?'
p55
tp56
Rp57
ag32
(g36
S'K~%S\xff\x89\x9b\xbf'
p58
tp59
Rp60
ag32
(g36
S'G\xd3\x8a\x1b\xd4\x80\xb5?'
p61
tp62
Rp63
abababsS'type'
p64
I1
sS'pan'
p65
Nsbag1
(g2
g3
Ntp66
Rp67
(dp68
g7
Nsg8
Nsg9
Nsg10
g1
(g11
g3
Ntp69
Rp70
(lp71
g1
(g15
g3
Ntp72
Rp73
(lp74
I0
ag1
(g19
g3
Ntp75
Rp76
(lp77
I0
aI0
abaS'ar_marker_13'
p78
abag1
(g24
g3
Ntp79
Rp80
(lp81
g1
(g28
g3
Ntp82
Rp83
(lp84
g32
(g36
S'46\xd3r\xd4\xfa\x97?'
p85
tp86
Rp87
ag32
(g36
S'H\x18\xd5"\xe0F\xdd\xbf'
p88
tp89
Rp90
ag32
(g36
S'\x00\x80z\xce\xc0\x0f\x9c\xbf'
p91
tp92
Rp93
abag1
(g48
g3
Ntp94
Rp95
(lp96
g32
(g36
S'%\\\xd1\xaa\xac\x82\xd7?'
p97
tp98
Rp99
ag32
(g36
S'\xf7\xc4I\x18\xc5\xab\xed?'
p100
tp101
Rp102
ag32
(g36
S'74\xff3\xe0\xb7\xad\xbf'
p103
tp104
Rp105
ag32
(g36
S'\x8b\xd9\xbb\x15\xb4\x9d\xa6?'
p106
tp107
Rp108
abababsg64
I1
sg65
Nsbag1
(g2
g3
Ntp109
Rp110
(dp111
g7
Nsg8
Nsg9
Nsg10
g1
(g11
g3
Ntp112
Rp113
(lp114
g1
(g15
g3
Ntp115
Rp116
(lp117
I0
ag1
(g19
g3
Ntp118
Rp119
(lp120
I0
aI0
abaS'ar_marker_13'
p121
abag1
(g24
g3
Ntp122
Rp123
(lp124
g1
(g28
g3
Ntp125
Rp126
(lp127
g32
(g36
S'Fo0`\x0e\xd8\xc2\xbf'
p128
tp129
Rp130
ag32
(g36
S'\xf8\xcbzO\x83\xb7\xcf\xbf'
p131
tp132
Rp133
ag32
(g36
S'P\xe1D\xb8Ho\xb1\xbf'
p134
tp135
Rp136
abag1
(g48
g3
Ntp137
Rp138
(lp139
g32
(g36
S'\xe8\x85K\xb3\x96\x1c\xe2?'
p140
tp141
Rp142
ag32
(g36
S'\x03\x1cu]\xff\x1b\xea?'
p143
tp144
Rp145
ag32
(g36
S'\xb9\xbf\x04\x9cZ~\xbc\xbf'
p146
tp147
Rp148
ag32
(g36
S'O\xf0Q\x85\xd7 \xa4?'
p149
tp150
Rp151
abababsg64
I1
sg65
Nsbag1
(g2
g3
Ntp152
Rp153
(dp154
g7
Nsg8
Nsg9
Nsg10
g1
(g11
g3
Ntp155
Rp156
(lp157
g1
(g15
g3
Ntp158
Rp159
(lp160
I0
ag1
(g19
g3
Ntp161
Rp162
(lp163
I0
aI0
abaS'ar_marker_13'
p164
abag1
(g24
g3
Ntp165
Rp166
(lp167
g1
(g28
g3
Ntp168
Rp169
(lp170
g32
(g36
S'|\x9eeX.\xd5\xc7\xbf'
p171
tp172
Rp173
ag32
(g36
S':[\x01\x1d+\xb2\xd0\xbf'
p174
tp175
Rp176
ag32
(g36
S'p\x10\x1aM=\xc4\xae\xbf'
p177
tp178
Rp179
abag1
(g48
g3
Ntp180
Rp181
(lp182
g32
(g36
S"T\x91I\x9b'\x85\xe3?"
p183
tp184
Rp185
ag32
(g36
S'\x13\xc9y\xf1\xf9!\xe9?'
p186
tp187
Rp188
ag32
(g36
S'/\x1d\xe8\xdd5\xec\xb9\xbf'
p189
tp190
Rp191
ag32
(g36
S'\x99pEo\xe8\xd0\x9c?'
p192
tp193
Rp194
abababsg64
I1
sg65
Nsbag1
(g2
g3
Ntp195
Rp196
(dp197
g7
Nsg8
Nsg9
Nsg10
g1
(g11
g3
Ntp198
Rp199
(lp200
g1
(g15
g3
Ntp201
Rp202
(lp203
I0
ag1
(g19
g3
Ntp204
Rp205
(lp206
I0
aI0
abaS'ar_marker_13'
p207
abag1
(g24
g3
Ntp208
Rp209
(lp210
g1
(g28
g3
Ntp211
Rp212
(lp213
g32
(g36
S'\xa2q\xd0\xbb.\xbc\xc6\xbf'
p214
tp215
Rp216
ag32
(g36
S'\xf2\xb7\xc4\x1f\x066\xd1\xbf'
p217
tp218
Rp219
ag32
(g36
S'(\x06m`\xeb\x1a\xbc\xbf'
p220
tp221
Rp222
abag1
(g48
g3
Ntp223
Rp224
(lp225
g32
(g36
S'\xe7\xdb\x85\x84L\r\xe2?'
p226
tp227
Rp228
ag32
(g36
S'I?7S\xd9\xed\xe9?'
p229
tp230
Rp231
ag32
(g36
S'\xf0S\xcde\xa7\xbd\xc0\xbf'
p232
tp233
Rp234
ag32
(g36
S'\x82\xfcwN\xc5\t\xb7?'
p235
tp236
Rp237
abababsg64
I1
sg65
Nsbag1
(g2
g3
Ntp238
Rp239
(dp240
g7
Nsg8
Nsg9
Nsg10
g1
(g11
g3
Ntp241
Rp242
(lp243
g1
(g15
g3
Ntp244
Rp245
(lp246
I0
ag1
(g19
g3
Ntp247
Rp248
(lp249
I0
aI0
abaS'ar_marker_13'
p250
abag1
(g24
g3
Ntp251
Rp252
(lp253
g1
(g28
g3
Ntp254
Rp255
(lp256
g32
(g36
S'\xa2\xd8\xef\xe0\xf0\xc1\xc2\xbf'
p257
tp258
Rp259
ag32
(g36
S'\x80\xde\nZ\x00\xaa\xcf\xbf'
p260
tp261
Rp262
ag32
(g36
S'x\xa8k\x81\xf3;\xbd\xbf'
p263
tp264
Rp265
abag1
(g48
g3
Ntp266
Rp267
(lp268
g32
(g36
S'V\xc5AE\xf0x\xe1?'
p269
tp270
Rp271
ag32
(g36
S'\x9ad1Sme\xea?'
p272
tp273
Rp274
ag32
(g36
S'\xb9\xb7\x0fi\xda_\xc0\xbf'
p275
tp276
Rp277
ag32
(g36
S'E\xad\x88\x8c!=\xb2?'
p278
tp279
Rp280
abababsg64
I1
sg65
Nsbag1
(g2
g3
Ntp281
Rp282
(dp283
g7
Nsg8
Nsg9
Nsg10
Nsg64
I2
sg65
Nsbag1
(g2
g3
Ntp284
Rp285
(dp286
g7
Nsg8
Nsg9
Nsg10
g1
(g11
g3
Ntp287
Rp288
(lp289
g1
(g15
g3
Ntp290
Rp291
(lp292
I0
ag1
(g19
g3
Ntp293
Rp294
(lp295
I0
aI0
abaS'base_link'
p296
abag1
(g24
g3
Ntp297
Rp298
(lp299
g1
(g28
g3
Ntp300
Rp301
(lp302
F0.6447436063774682
aF0.13076341900795566
aF0.9229244717113643
abag1
(g48
g3
Ntp303
Rp304
(lp305
F0.9854251997677653
aF0.1697695316857128
aF0.005669120714605219
aF-0.009129230208308454
abababsg64
I1
sg65
Nsbag1
(g2
g3
Ntp306
Rp307
(dp308
g7
Nsg8
Nsg9
Nsg10
g1
(g11
g3
Ntp309
Rp310
(lp311
g1
(g15
g3
Ntp312
Rp313
(lp314
I0
ag1
(g19
g3
Ntp315
Rp316
(lp317
I0
aI0
abaS'base_link'
p318
abag1
(g24
g3
Ntp319
Rp320
(lp321
g1
(g28
g3
Ntp322
Rp323
(lp324
F0.5785319720648839
aF0.1133675161464886
aF0.9234534987931506
abag1
(g48
g3
Ntp325
Rp326
(lp327
F0.9876607296017168
aF0.155769280614774
aF0.014551994540423142
aF-0.007103089064292385
abababsg64
I1
sg65
Nsbag1
(g2
g3
Ntp328
Rp329
(dp330
g7
Nsg8
Nsg9
Nsg10
g1
(g11
g3
Ntp331
Rp332
(lp333
g1
(g15
g3
Ntp334
Rp335
(lp336
I0
ag1
(g19
g3
Ntp337
Rp338
(lp339
I0
aI0
abaS'base_link'
p340
abag1
(g24
g3
Ntp341
Rp342
(lp343
g1
(g28
g3
Ntp344
Rp345
(lp346
F0.5107809958114851
aF0.08990621005932113
aF0.9409093130355078
abag1
(g48
g3
Ntp347
Rp348
(lp349
F0.9852944360378271
aF0.16368467607079643
aF0.04808228763437221
aF0.009502354884133648
abababsg64
I1
sg65
Nsba.