(lp0
ccopy_reg
_reconstructor
p1
(cpbd.command
Command
p2
c__builtin__
object
p3
Ntp4
Rp5
(dp6
S'pose_stamped'
p7
g1
(cgeometry_msgs.msg._PoseStamped
PoseStamped
p8
g3
Ntp9
Rp10
(lp11
g1
(cstd_msgs.msg._Header
Header
p12
g3
Ntp13
Rp14
(lp15
I0
ag1
(cgenpy.rostime
Time
p16
g3
Ntp17
Rp18
(lp19
I0
aI0
abaS'ar_marker_13'
p20
abag1
(cgeometry_msgs.msg._Pose
Pose
p21
g3
Ntp22
Rp23
(lp24
g1
(cgeometry_msgs.msg._Point
Point
p25
g3
Ntp26
Rp27
(lp28
cnumpy.core.multiarray
scalar
p29
(cnumpy
dtype
p30
(S'f8'
p31
I0
I1
tp32
Rp33
(I3
S'<'
p34
NNNI-1
I-1
I0
tp35
bS'\xd0\x04t\x88\x90=\xce?'
p36
tp37
Rp38
ag29
(g33
S'\x94\xed@l\xa8\x8e\xe3\xbf'
p39
tp40
Rp41
ag29
(g33
S'\xe02\xc33\xfet\xaa?'
p42
tp43
Rp44
abag1
(cgeometry_msgs.msg._Quaternion
Quaternion
p45
g3
Ntp46
Rp47
(lp48
g29
(g33
S'\xc9\x8a\x18\x01\x15<\xe0?'
p49
tp50
Rp51
ag29
(g33
S'|\xa3\x0c\xc5\xbd,\xeb?'
p52
tp53
Rp54
ag29
(g33
S'\xbbpG\x12\xf5}\xc2\xbf'
p55
tp56
Rp57
ag29
(g33
S'\x0b\xe8\x08<j\xab\x98?'
p58
tp59
Rp60
abababsS'alias'
p61
NsS'type'
p62
I1
sbag1
(g2
g3
Ntp63
Rp64
(dp65
g7
g1
(g8
g3
Ntp66
Rp67
(lp68
g1
(g12
g3
Ntp69
Rp70
(lp71
I0
ag1
(g16
g3
Ntp72
Rp73
(lp74
I0
aI0
abaS'ar_marker_13'
p75
abag1
(g21
g3
Ntp76
Rp77
(lp78
g1
(g25
g3
Ntp79
Rp80
(lp81
g29
(g33
S'\xa8\xa4\xe2Y\xbfe\x9a?'
p82
tp83
Rp84
ag29
(g33
S'(\xe8\xaa\xdb\xc1\x87\xdd\xbf'
p85
tp86
Rp87
ag29
(g33
S'\x80d\x1e\x17`\xf5\x81?'
p88
tp89
Rp90
abag1
(g45
g3
Ntp91
Rp92
(lp93
g29
(g33
S'a\r\nb\xf0x\xd8?'
p94
tp95
Rp96
ag29
(g33
S'`\xc4\x05\x90UV\xed?'
p97
tp98
Rp99
ag29
(g33
S'\xbd\xcc\xa4\x8dq\x0f\xbd\xbf'
p100
tp101
Rp102
ag29
(g33
S'\xd3\x04\x8b.\xd3c\x94?'
p103
tp104
Rp105
abababsg61
Nsg62
I1
sbag1
(g2
g3
Ntp106
Rp107
(dp108
g7
g1
(g8
g3
Ntp109
Rp110
(lp111
g1
(g12
g3
Ntp112
Rp113
(lp114
I0
ag1
(g16
g3
Ntp115
Rp116
(lp117
I0
aI0
abaS'ar_marker_13'
p118
abag1
(g21
g3
Ntp119
Rp120
(lp121
g1
(g25
g3
Ntp122
Rp123
(lp124
g29
(g33
S'l"\x89#N\xee\xa9\xbf'
p125
tp126
Rp127
ag29
(g33
S'\xf4He\xf0|\xab\xd6\xbf'
p128
tp129
Rp130
ag29
(g33
S'\xe0R^\xa9r\xfc\x99\xbf'
p131
tp132
Rp133
abag1
(g45
g3
Ntp134
Rp135
(lp136
g29
(g33
S'Oa\x08=\xe9\xc5\xdd?'
p137
tp138
Rp139
ag29
(g33
S'\xae\x9c\xfb\xa6.\x1c\xec?'
p140
tp141
Rp142
ag29
(g33
S'8~{\x17\xf8\xd1\xb7\xbf'
p143
tp144
Rp145
ag29
(g33
S'\xf0\xe2\x183\xd5F\xad?'
p146
tp147
Rp148
abababsg61
Nsg62
I1
sbag1
(g2
g3
Ntp149
Rp150
(dp151
g7
g1
(g8
g3
Ntp152
Rp153
(lp154
g1
(g12
g3
Ntp155
Rp156
(lp157
I0
ag1
(g16
g3
Ntp158
Rp159
(lp160
I0
aI0
abaS'ar_marker_13'
p161
abag1
(g21
g3
Ntp162
Rp163
(lp164
g1
(g25
g3
Ntp165
Rp166
(lp167
g29
(g33
S'\xe9\xec\x05\xd6|\\\xc4\xbf'
p168
tp169
Rp170
ag29
(g33
S'\xecc\xb1\x9f\x93\xca\xcf\xbf'
p171
tp172
Rp173
ag29
(g33
S'`\x85\x9d\x16\xe2\xe5\xac\xbf'
p174
tp175
Rp176
abag1
(g45
g3
Ntp177
Rp178
(lp179
g29
(g33
S'ou\t\x91\x8c1\xe3?'
p180
tp181
Rp182
ag29
(g33
S'\xc4\xa3\xa2e\xf1\x14\xe9?'
p183
tp184
Rp185
ag29
(g33
S'fY\xb5\xd7\xfe\x84\xc4\xbf'
p186
tp187
Rp188
ag29
(g33
S'\xca<9\xc2\xcd?\x8c\xbf'
p189
tp190
Rp191
abababsg61
Nsg62
I1
sbag1
(g2
g3
Ntp192
Rp193
(dp194
g7
g1
(g8
g3
Ntp195
Rp196
(lp197
g1
(g12
g3
Ntp198
Rp199
(lp200
I0
ag1
(g16
g3
Ntp201
Rp202
(lp203
I0
aI0
abaS'ar_marker_13'
p204
abag1
(g21
g3
Ntp205
Rp206
(lp207
g1
(g25
g3
Ntp208
Rp209
(lp210
g29
(g33
S'\x02\xf0\x86+y"\xc9\xbf'
p211
tp212
Rp213
ag29
(g33
S'\x16\xa1PR)\xbb\xd0\xbf'
p214
tp215
Rp216
ag29
(g33
S'8\x1a\xa1\x12\xa4\x02\xb9\xbf'
p217
tp218
Rp219
abag1
(g45
g3
Ntp220
Rp221
(lp222
g29
(g33
S'\xc7P\xd5\x02\x96P\xe4?'
p223
tp224
Rp225
ag29
(g33
S'\x06"\xfc3!\xc5\xe7?'
p226
tp227
Rp228
ag29
(g33
S'#\x9b\x98)&\xf2\xca\xbf'
p229
tp230
Rp231
ag29
(g33
S'MX/\xbcC\x9a\x9e?'
p232
tp233
Rp234
abababsg61
Nsg62
I1
sbag1
(g2
g3
Ntp235
Rp236
(dp237
g7
Nsg61
Nsg62
I2
sbag1
(g2
g3
Ntp238
Rp239
(dp240
g7
g1
(g8
g3
Ntp241
Rp242
(lp243
g1
(g12
g3
Ntp244
Rp245
(lp246
I0
ag1
(g16
g3
Ntp247
Rp248
(lp249
I0
aI0
abaS'base_link'
p250
abag1
(g21
g3
Ntp251
Rp252
(lp253
g1
(g25
g3
Ntp254
Rp255
(lp256
F0.5342517933444152
aF0.12593626515416106
aF0.9185900781268541
abag1
(g45
g3
Ntp257
Rp258
(lp259
F0.9330145208972139
aF0.29589416086802817
aF0.0979303026669416
aF-0.1798338265697224
abababsg61
Nsg62
I1
sba.