(lp0
ccopy_reg
_reconstructor
p1
(cpbd.command
Command
p2
c__builtin__
object
p3
Ntp4
Rp5
(dp6
S'pose_stamped'
p7
g1
(cgeometry_msgs.msg._PoseStamped
PoseStamped
p8
g3
Ntp9
Rp10
(lp11
g1
(cstd_msgs.msg._Header
Header
p12
g3
Ntp13
Rp14
(lp15
I0
ag1
(cgenpy.rostime
Time
p16
g3
Ntp17
Rp18
(lp19
I0
aI0
abaS'ar_marker_10'
p20
abag1
(cgeometry_msgs.msg._Pose
Pose
p21
g3
Ntp22
Rp23
(lp24
g1
(cgeometry_msgs.msg._Point
Point
p25
g3
Ntp26
Rp27
(lp28
cnumpy.core.multiarray
scalar
p29
(cnumpy
dtype
p30
(S'f8'
p31
I0
I1
tp32
Rp33
(I3
S'<'
p34
NNNI-1
I-1
I0
tp35
bS'\x9e\xfcE\x06\xf5$\xdf\xbf'
p36
tp37
Rp38
ag29
(g33
S' \x03`\xde\xb8i\x93?'
p39
tp40
Rp41
ag29
(g33
S'PnA\xec\x8d\xd4\xab?'
p42
tp43
Rp44
abag1
(cgeometry_msgs.msg._Quaternion
Quaternion
p45
g3
Ntp46
Rp47
(lp48
g29
(g33
S'\xde\xc8\xa9\xa2q\xe7\xef?'
p49
tp50
Rp51
ag29
(g33
S'_~\x8eq:\x00\x92\xbf'
p52
tp53
Rp54
ag29
(g33
S'FQ\xc2\xad\xd9n\xb1\xbf'
p55
tp56
Rp57
ag29
(g33
S'\xd9%\xfa\xe4\x9f\x82\xa0?'
p58
tp59
Rp60
abababsS'alias'
p61
NsS'type'
p62
I1
sbag1
(g2
g3
Ntp63
Rp64
(dp65
g7
g1
(g8
g3
Ntp66
Rp67
(lp68
g1
(g12
g3
Ntp69
Rp70
(lp71
I0
ag1
(g16
g3
Ntp72
Rp73
(lp74
I0
aI0
abaS'ar_marker_10'
p75
abag1
(g21
g3
Ntp76
Rp77
(lp78
g1
(g25
g3
Ntp79
Rp80
(lp81
g29
(g33
S'V\x11\xa6K\x9a\xa2\xd0\xbf'
p82
tp83
Rp84
ag29
(g33
S'\xa0\xb7\xba\x0b\xb0\xed\x82?'
p85
tp86
Rp87
ag29
(g33
S'\x00\x1a\x14\xab\xa9\x06\x8c?'
p88
tp89
Rp90
abag1
(g45
g3
Ntp91
Rp92
(lp93
g29
(g33
S'\xb0\x1c\xa3\x1eH\xc7\xef?'
p94
tp95
Rp96
ag29
(g33
S'\x18\xb0\x1a\\t\xe5\x8f\xbf'
p97
tp98
Rp99
ag29
(g33
S'@\xa3N\x9e\xf2\xcc\xbd\xbf'
p100
tp101
Rp102
ag29
(g33
S'\xa1\xd6\x8a\xeeu\xbac\xbf'
p103
tp104
Rp105
abababsg61
Nsg62
I1
sbag1
(g2
g3
Ntp106
Rp107
(dp108
g7
Nsg61
Nsg62
I3
sbag1
(g2
g3
Ntp109
Rp110
(dp111
g7
g1
(g8
g3
Ntp112
Rp113
(lp114
g1
(g12
g3
Ntp115
Rp116
(lp117
I0
ag1
(g16
g3
Ntp118
Rp119
(lp120
I0
aI0
abaS'base_link'
p121
abag1
(g21
g3
Ntp122
Rp123
(lp124
g1
(g25
g3
Ntp125
Rp126
(lp127
F0.454217809835796
aF-0.3733856746403046
aF0.9878838840771813
abag1
(g45
g3
Ntp128
Rp129
(lp130
F0.9877982190679798
aF-0.11544413466946168
aF0.08706605278861983
aF0.057851816119769875
abababsg61
Nsg62
I1
sbag1
(g2
g3
Ntp131
Rp132
(dp133
S'tilt'
p134
NsS'height'
p135
Nsg61
Nsg7
g1
(g8
g3
Ntp136
Rp137
(lp138
g1
(g12
g3
Ntp139
Rp140
(lp141
I0
ag1
(g16
g3
Ntp142
Rp143
(lp144
I0
aI0
abaS'ar_marker_13'
p145
abag1
(g21
g3
Ntp146
Rp147
(lp148
g1
(g25
g3
Ntp149
Rp150
(lp151
g29
(g33
S'\x9c\x13\xe1\x9b\xc2\xfd\xc9?'
p152
tp153
Rp154
ag29
(g33
S'\xfaV\xcc\xcf\x9a\xcf\xe3\xbf'
p155
tp156
Rp157
ag29
(g33
S'\xc0\xee\x17\x9b\x0fY\x98?'
p158
tp159
Rp160
abag1
(g45
g3
Ntp161
Rp162
(lp163
g29
(g33
S'k|-]\x16\x81\xea?'
p164
tp165
Rp166
ag29
(g33
S'Z3\x95\xc2\x0eq\xe1?'
p167
tp168
Rp169
ag29
(g33
S'\x17ii/A}\xa6?'
p170
tp171
Rp172
ag29
(g33
S'nR\xe3\xd9\xebT\xbf?'
p173
tp174
Rp175
abababsg62
I1
sS'pan'
p176
Nsbag1
(g2
g3
Ntp177
Rp178
(dp179
g134
Nsg135
Nsg61
Nsg7
g1
(g8
g3
Ntp180
Rp181
(lp182
g1
(g12
g3
Ntp183
Rp184
(lp185
I0
ag1
(g16
g3
Ntp186
Rp187
(lp188
I0
aI0
abaS'ar_marker_13'
p189
abag1
(g21
g3
Ntp190
Rp191
(lp192
g1
(g25
g3
Ntp193
Rp194
(lp195
g29
(g33
S'7\x19\x9aai\xd4\xbb\xbf'
p196
tp197
Rp198
ag29
(g33
S'x\xfe\x1e\x80\xa7\x1e\xe0\xbf'
p199
tp200
Rp201
ag29
(g33
S'\xc0>\x18\x8f\xf2?\x8c?'
p202
tp203
Rp204
abag1
(g45
g3
Ntp205
Rp206
(lp207
g29
(g33
S'\xce\xc3%!J4\xe1?'
p208
tp209
Rp210
ag29
(g33
S'\xd8\x84h\xabE\xf9\xea?'
p211
tp212
Rp213
ag29
(g33
S'ki\x8c\x16S\xd3g\xbf'
p214
tp215
Rp216
ag29
(g33
S'\x9e\xfa\xac\x1dP\xd2\x94?'
p217
tp218
Rp219
abababsg62
I1
sg176
Nsbag1
(g2
g3
Ntp220
Rp221
(dp222
g134
Nsg135
Nsg61
Nsg7
g1
(g8
g3
Ntp223
Rp224
(lp225
g1
(g12
g3
Ntp226
Rp227
(lp228
I0
ag1
(g16
g3
Ntp229
Rp230
(lp231
I0
aI0
abaS'ar_marker_13'
p232
abag1
(g21
g3
Ntp233
Rp234
(lp235
g1
(g25
g3
Ntp236
Rp237
(lp238
g29
(g33
S'\xa6\xb5\x8c#\xa75\xc7\xbf'
p239
tp240
Rp241
ag29
(g33
S'\x04\x91)\xfb\xed\xa7\xd1\xbf'
p242
tp243
Rp244
ag29
(g33
S'8\xf0\x048!\xea\xb6\xbf'
p245
tp246
Rp247
abag1
(g45
g3
Ntp248
Rp249
(lp250
g29
(g33
S'\x97n\xedH\xdfV\xe2?'
p251
tp252
Rp253
ag29
(g33
S"\xe0l~Gc'\xea?"
p254
tp255
Rp256
ag29
(g33
S'\x914\xcc\xd8\x99\xac\xa7\xbf'
p257
tp258
Rp259
ag29
(g33
S'o\xa7\xcc\xf0_L\xa3?'
p260
tp261
Rp262
abababsg62
I1
sg176
Nsbag1
(g2
g3
Ntp263
Rp264
(dp265
g134
Nsg135
Nsg61
Nsg7
g1
(g8
g3
Ntp266
Rp267
(lp268
g1
(g12
g3
Ntp269
Rp270
(lp271
I0
ag1
(g16
g3
Ntp272
Rp273
(lp274
I0
aI0
abaS'ar_marker_13'
p275
abag1
(g21
g3
Ntp276
Rp277
(lp278
g1
(g25
g3
Ntp279
Rp280
(lp281
g29
(g33
S'\xd5D\xe4B\xb7j\xc6\xbf'
p282
tp283
Rp284
ag29
(g33
S"\x14'\x8e\xecb^\xd2\xbf"
p285
tp286
Rp287
ag29
(g33
S'\xe0u\xae:\xbc\xb5\xbe\xbf'
p288
tp289
Rp290
abag1
(g45
g3
Ntp291
Rp292
(lp293
g29
(g33
S'>\xbb\x98\x18\xc3k\xe1?'
p294
tp295
Rp296
ag29
(g33
S'v\xd8}\xb6\x07\xa7\xea?'
p297
tp298
Rp299
ag29
(g33
S'\x02\x13\xaa"\x85_\xb5\xbf'
p300
tp301
Rp302
ag29
(g33
S'\x85\xcb\x14\xb6?\xcd\xab?'
p303
tp304
Rp305
abababsg62
I1
sg176
Nsbag1
(g2
g3
Ntp306
Rp307
(dp308
g134
Nsg135
Nsg61
Nsg7
Nsg62
I2
sg176
Nsbag1
(g2
g3
Ntp309
Rp310
(dp311
g134
Nsg135
Nsg61
Nsg7
g1
(g8
g3
Ntp312
Rp313
(lp314
g1
(g12
g3
Ntp315
Rp316
(lp317
I0
ag1
(g16
g3
Ntp318
Rp319
(lp320
I0
aI0
abaS'base_link'
p321
abag1
(g21
g3
Ntp322
Rp323
(lp324
g1
(g25
g3
Ntp325
Rp326
(lp327
F0.5528916487307667
aF0.012849072772627649
aF0.891843696145857
abag1
(g45
g3
Ntp328
Rp329
(lp330
F0.9851492298837501
aF0.16128543003550821
aF0.05888974380198492
aF5.470513817576008e-05
abababsg62
I1
sg176
Nsba.