(lp0
ccopy_reg
_reconstructor
p1
(cpbd.command
Command
p2
c__builtin__
object
p3
Ntp4
Rp5
(dp6
S'pose_stamped'
p7
g1
(cgeometry_msgs.msg._PoseStamped
PoseStamped
p8
g3
Ntp9
Rp10
(lp11
g1
(cstd_msgs.msg._Header
Header
p12
g3
Ntp13
Rp14
(lp15
I0
ag1
(cgenpy.rostime
Time
p16
g3
Ntp17
Rp18
(lp19
I0
aI0
abaS'ar_marker_13'
p20
abag1
(cgeometry_msgs.msg._Pose
Pose
p21
g3
Ntp22
Rp23
(lp24
g1
(cgeometry_msgs.msg._Point
Point
p25
g3
Ntp26
Rp27
(lp28
cnumpy.core.multiarray
scalar
p29
(cnumpy
dtype
p30
(S'f8'
p31
I0
I1
tp32
Rp33
(I3
S'<'
p34
NNNI-1
I-1
I0
tp35
bS'b;^\x05E\xb6\xd1?'
p36
tp37
Rp38
ag29
(g33
S'r\xfd\x87*gm\xe2\xbf'
p39
tp40
Rp41
ag29
(g33
S'@\xd1(`\x07\xe7\x84\xbf'
p42
tp43
Rp44
abag1
(cgeometry_msgs.msg._Quaternion
Quaternion
p45
g3
Ntp46
Rp47
(lp48
g29
(g33
S'\xf8(Z\xdd1\xe6\xda?'
p49
tp50
Rp51
ag29
(g33
S'\x92w7\xcf;\xbe\xec?'
p52
tp53
Rp54
ag29
(g33
S'!)\xe8\x94\xfdZ\xc0\xbf'
p55
tp56
Rp57
ag29
(g33
S'Zq(\x0epE\x8e?'
p58
tp59
Rp60
abababsS'alias'
p61
NsS'type'
p62
I1
sbag1
(g2
g3
Ntp63
Rp64
(dp65
g7
g1
(g8
g3
Ntp66
Rp67
(lp68
g1
(g12
g3
Ntp69
Rp70
(lp71
I0
ag1
(g16
g3
Ntp72
Rp73
(lp74
I0
aI0
abaS'ar_marker_13'
p75
abag1
(g21
g3
Ntp76
Rp77
(lp78
g1
(g25
g3
Ntp79
Rp80
(lp81
g29
(g33
S'\xde[\x16M\n8\x97\xbf'
p82
tp83
Rp84
ag29
(g33
S'\xd8\x80\xa6\xd6\x95U\xda\xbf'
p85
tp86
Rp87
ag29
(g33
S'\xb0+\x0e!\xd56\xa5\xbf'
p88
tp89
Rp90
abag1
(g45
g3
Ntp91
Rp92
(lp93
g29
(g33
S'N\xad\xf69\xc8L\xda?'
p94
tp95
Rp96
ag29
(g33
S'r\xc7\x0b\xc4d\xe4\xec?'
p97
tp98
Rp99
ag29
(g33
S"9\xdcp?\xe2'\xc0\xbf"
p100
tp101
Rp102
ag29
(g33
S'\xc3\xa9\xfa\\\xf7@g?'
p103
tp104
Rp105
abababsg61
Nsg62
I1
sbag1
(g2
g3
Ntp106
Rp107
(dp108
g7
g1
(g8
g3
Ntp109
Rp110
(lp111
g1
(g12
g3
Ntp112
Rp113
(lp114
I0
ag1
(g16
g3
Ntp115
Rp116
(lp117
I0
aI0
abaS'ar_marker_13'
p118
abag1
(g21
g3
Ntp119
Rp120
(lp121
g1
(g25
g3
Ntp122
Rp123
(lp124
g29
(g33
S'\x00\xa9\xad\xbb9\xe0\xc4\xbf'
p125
tp126
Rp127
ag29
(g33
S't>\xbf\xcb\xdf(\xd7\xbf'
p128
tp129
Rp130
ag29
(g33
S'\xd0\xaf\xfd\xe2\xcbi\xb4\xbf'
p131
tp132
Rp133
abag1
(g45
g3
Ntp134
Rp135
(lp136
g29
(g33
S"'\xb1\xec\xa5\x0cG\xe4?"
p137
tp138
Rp139
ag29
(g33
S'Pc\x92\x98\xc1\xa3\xe8?'
p140
tp141
Rp142
ag29
(g33
S'T1f\xa6\x0e\xe2\xb2\xbf'
p143
tp144
Rp145
ag29
(g33
S'\xa1\x81\xda\xa2@\xa8\x87\xbf'
p146
tp147
Rp148
abababsg61
Nsg62
I1
sbag1
(g2
g3
Ntp149
Rp150
(dp151
g7
g1
(g8
g3
Ntp152
Rp153
(lp154
g1
(g12
g3
Ntp155
Rp156
(lp157
I0
ag1
(g16
g3
Ntp158
Rp159
(lp160
I0
aI0
abaS'ar_marker_13'
p161
abag1
(g21
g3
Ntp162
Rp163
(lp164
g1
(g25
g3
Ntp165
Rp166
(lp167
g29
(g33
S'y\x05\xf4\xa5\x9c\xd3\xc9\xbf'
p168
tp169
Rp170
ag29
(g33
S'<\x99\xd8\x0b\xcf\x92\xd3\xbf'
p171
tp172
Rp173
ag29
(g33
S'|.\x82\xc2\xe9#\xc0\xbf'
p174
tp175
Rp176
abag1
(g45
g3
Ntp177
Rp178
(lp179
g29
(g33
S'\x02\xdf\xdf\x1bBG\xe5?'
p180
tp181
Rp182
ag29
(g33
S'@.\xe7\xf6]\xba\xe7?'
p183
tp184
Rp185
ag29
(g33
S'\xc4\xe0\xae\x81,\x90\xb6\xbf'
p186
tp187
Rp188
ag29
(g33
S'\x85\x8f$\xbe7K\x90?'
p189
tp190
Rp191
abababsg61
Nsg62
I1
sbag1
(g2
g3
Ntp192
Rp193
(dp194
g7
g1
(g8
g3
Ntp195
Rp196
(lp197
g1
(g12
g3
Ntp198
Rp199
(lp200
I0
ag1
(g16
g3
Ntp201
Rp202
(lp203
I0
aI0
abaS'ar_marker_13'
p204
abag1
(g21
g3
Ntp205
Rp206
(lp207
g1
(g25
g3
Ntp208
Rp209
(lp210
g29
(g33
S'\xc7\x7f\xe2z&\x82\xc7\xbf'
p211
tp212
Rp213
ag29
(g33
S'\x8e\xdd\x93\xad\x14\xb8\xd2\xbf'
p214
tp215
Rp216
ag29
(g33
S'\xe8\x13Sd\xc5\x10\xc0\xbf'
p217
tp218
Rp219
abag1
(g45
g3
Ntp220
Rp221
(lp222
g29
(g33
S'X\xe6)\xe6\x1c\x13\xe4?'
p223
tp224
Rp225
ag29
(g33
S'O\r\xe41E\xb6\xe8?'
p226
tp227
Rp228
ag29
(g33
S'+8qa\x00\xf5\xb8\xbf'
p229
tp230
Rp231
ag29
(g33
S'\xefM\xc0\xdc%\xa6\x98?'
p232
tp233
Rp234
abababsg61
Nsg62
I1
sbag1
(g2
g3
Ntp235
Rp236
(dp237
g7
Nsg61
Nsg62
I2
sbag1
(g2
g3
Ntp238
Rp239
(dp240
g7
g1
(g8
g3
Ntp241
Rp242
(lp243
g1
(g12
g3
Ntp244
Rp245
(lp246
I0
ag1
(g16
g3
Ntp247
Rp248
(lp249
I0
aI0
abaS'base_link'
p250
abag1
(g21
g3
Ntp251
Rp252
(lp253
g1
(g25
g3
Ntp254
Rp255
(lp256
F0.5491092465394155
aF0.19861108903171396
aF0.9032824690047927
abag1
(g45
g3
Ntp257
Rp258
(lp259
F0.9897836191047427
aF0.015273748683878211
aF0.14009310379143716
aF-0.021656920906283666
abababsg61
Nsg62
I1
sbag1
(g2
g3
Ntp260
Rp261
(dp262
g7
g1
(g8
g3
Ntp263
Rp264
(lp265
g1
(g12
g3
Ntp266
Rp267
(lp268
I0
ag1
(g16
g3
Ntp269
Rp270
(lp271
I0
aI0
abaS'base_link'
p272
abag1
(g21
g3
Ntp273
Rp274
(lp275
g1
(g25
g3
Ntp276
Rp277
(lp278
F0.5484723167446904
aF0.04796299168674375
aF0.9264414951800761
abag1
(g45
g3
Ntp279
Rp280
(lp281
F0.9262050137349922
aF0.37520247435840126
aF0.029915358903519547
aF-0.02173584756041
abababsg61
Nsg62
I1
sbag1
(g2
g3
Ntp282
Rp283
(dp284
g7
g1
(g8
g3
Ntp285
Rp286
(lp287
g1
(g12
g3
Ntp288
Rp289
(lp290
I0
ag1
(g16
g3
Ntp291
Rp292
(lp293
I0
aI0
abaS'base_link'
p294
abag1
(g21
g3
Ntp295
Rp296
(lp297
g1
(g25
g3
Ntp298
Rp299
(lp300
F0.3818825808642827
aF-0.2850891637628917
aF1.0799874244345609
abag1
(g45
g3
Ntp301
Rp302
(lp303
F0.9623158283761183
aF0.12439217619465905
aF0.23656085087625034
aF0.050137778082469484
abababsg61
Nsg62
I1
sba.