(lp0
ccopy_reg
_reconstructor
p1
(cpbd.command
Command
p2
c__builtin__
object
p3
Ntp4
Rp5
(dp6
S'pose_stamped'
p7
g1
(cgeometry_msgs.msg._PoseStamped
PoseStamped
p8
g3
Ntp9
Rp10
(lp11
g1
(cstd_msgs.msg._Header
Header
p12
g3
Ntp13
Rp14
(lp15
I0
ag1
(cgenpy.rostime
Time
p16
g3
Ntp17
Rp18
(lp19
I0
aI0
abaS'ar_marker_13'
p20
abag1
(cgeometry_msgs.msg._Pose
Pose
p21
g3
Ntp22
Rp23
(lp24
g1
(cgeometry_msgs.msg._Point
Point
p25
g3
Ntp26
Rp27
(lp28
cnumpy.core.multiarray
scalar
p29
(cnumpy
dtype
p30
(S'f8'
p31
I0
I1
tp32
Rp33
(I3
S'<'
p34
NNNI-1
I-1
I0
tp35
bS'\nY\x08\xb4\x0b\xdf\xc2?'
p36
tp37
Rp38
ag29
(g33
S'-\xc1gO\x9b\xdc\xe0\xbf'
p39
tp40
Rp41
ag29
(g33
S'\xc0\xbb)\x97,\x8b\x95\xbf'
p42
tp43
Rp44
abag1
(cgeometry_msgs.msg._Quaternion
Quaternion
p45
g3
Ntp46
Rp47
(lp48
g29
(g33
S']\x045\xfb\xc1}\xe3?'
p49
tp50
Rp51
ag29
(g33
S'\xdf\x9cV\xc1\x85\x9a\xe8?'
p52
tp53
Rp54
ag29
(g33
S'\x0f\xd0Cz\t\xe0\xbe\xbf'
p55
tp56
Rp57
ag29
(g33
S' \xb6\xd6!\xd4\x89\xc3?'
p58
tp59
Rp60
abababsS'alias'
p61
NsS'type'
p62
I1
sbag1
(g2
g3
Ntp63
Rp64
(dp65
S'tilt'
p66
NsS'height'
p67
Nsg61
Nsg7
g1
(g8
g3
Ntp68
Rp69
(lp70
g1
(g12
g3
Ntp71
Rp72
(lp73
I0
ag1
(g16
g3
Ntp74
Rp75
(lp76
I0
aI0
abaS'ar_marker_13'
p77
abag1
(g21
g3
Ntp78
Rp79
(lp80
g1
(g25
g3
Ntp81
Rp82
(lp83
g29
(g33
S'\x87Y\x02e~.\xa1?'
p84
tp85
Rp86
ag29
(g33
S'p\xdc\x949\xe7\xf6\xdd\xbf'
p87
tp88
Rp89
ag29
(g33
S'\xd8a@J\xbf\xd2\xb8\xbf'
p90
tp91
Rp92
abag1
(g45
g3
Ntp93
Rp94
(lp95
g29
(g33
S'K\xd6\\\xed.\xb6\xe6?'
p96
tp97
Rp98
ag29
(g33
S'\xde.IG\x8c\xf6\xe5?'
p99
tp100
Rp101
ag29
(g33
S'9\xa8\xefn\xfd\xf8\xc0\xbf'
p102
tp103
Rp104
ag29
(g33
S'\xcb}\n\xf2\x9eW\xb6?'
p105
tp106
Rp107
abababsg62
I1
sS'pan'
p108
Nsbag1
(g2
g3
Ntp109
Rp110
(dp111
g66
Nsg67
Nsg61
Nsg7
g1
(g8
g3
Ntp112
Rp113
(lp114
g1
(g12
g3
Ntp115
Rp116
(lp117
I0
ag1
(g16
g3
Ntp118
Rp119
(lp120
I0
aI0
abaS'ar_marker_13'
p121
abag1
(g21
g3
Ntp122
Rp123
(lp124
g1
(g25
g3
Ntp125
Rp126
(lp127
g29
(g33
S'k)\x19.\xcd\x18\xb1?'
p128
tp129
Rp130
ag29
(g33
S't\x1a\xef\xb4\x83\xff\xd7\xbf'
p131
tp132
Rp133
ag29
(g33
S'\xec@x\xe56g\xc0\xbf'
p134
tp135
Rp136
abag1
(g45
g3
Ntp137
Rp138
(lp139
g29
(g33
S'\xa2N\xbdw\xef\xff\xe5?'
p140
tp141
Rp142
ag29
(g33
S'\x00Q\xb3\x15\xbc\x8f\xe6?'
p143
tp144
Rp145
ag29
(g33
S'\xe8\x1b"\xdf;C\xc0\xbf'
p146
tp147
Rp148
ag29
(g33
S'\xb3]\xc25Kl\xbe?'
p149
tp150
Rp151
abababsg62
I1
sg108
Nsbag1
(g2
g3
Ntp152
Rp153
(dp154
g66
Nsg67
Nsg61
Nsg7
g1
(g8
g3
Ntp155
Rp156
(lp157
g1
(g12
g3
Ntp158
Rp159
(lp160
I0
ag1
(g16
g3
Ntp161
Rp162
(lp163
I0
aI0
abaS'ar_marker_13'
p164
abag1
(g21
g3
Ntp165
Rp166
(lp167
g1
(g25
g3
Ntp168
Rp169
(lp170
g29
(g33
S'\xc2\x89\xdaW\xfc\xd8\xb1?'
p171
tp172
Rp173
ag29
(g33
S'HA\x15\x19eU\xd6\xbf'
p174
tp175
Rp176
ag29
(g33
S'H\x8e\x02\xdd\x08;\xc5\xbf'
p177
tp178
Rp179
abag1
(g45
g3
Ntp180
Rp181
(lp182
g29
(g33
S'\x8b\x1c\xfc\x9d\x0eR\xe6?'
p183
tp184
Rp185
ag29
(g33
S'~\xf7@)Q\xb3\xe6?'
p186
tp187
Rp188
ag29
(g33
S"'\xecs%Bt\xb2\xbf"
p189
tp190
Rp191
ag29
(g33
S'\x83\xd9\xac\x00\xf5,\xb2?'
p192
tp193
Rp194
abababsg62
I1
sg108
Nsbag1
(g2
g3
Ntp195
Rp196
(dp197
g66
Nsg67
Nsg61
Nsg7
g1
(g8
g3
Ntp198
Rp199
(lp200
g1
(g12
g3
Ntp201
Rp202
(lp203
I0
ag1
(g16
g3
Ntp204
Rp205
(lp206
I0
aI0
abaS'ar_marker_13'
p207
abag1
(g21
g3
Ntp208
Rp209
(lp210
g1
(g25
g3
Ntp211
Rp212
(lp213
g29
(g33
S'\x1d8\xc7YL\xf9\xb3?'
p214
tp215
Rp216
ag29
(g33
S'\xd0\xc3\x1c^\x03T\xd4\xbf'
p217
tp218
Rp219
ag29
(g33
S'\xa4\x9f\xfe\x1a\x1bX\xc6\xbf'
p220
tp221
Rp222
abag1
(g45
g3
Ntp223
Rp224
(lp225
g29
(g33
S',?\xca\x813\xff\xe5?'
p226
tp227
Rp228
ag29
(g33
S'\x86\x05\x98\xe7\xdb\xfe\xe6?'
p229
tp230
Rp231
ag29
(g33
S'C\xef\xdd\xd8H]\xb3\xbf'
p232
tp233
Rp234
ag29
(g33
S'L\xf2QP\xa8\xbb\xb2?'
p235
tp236
Rp237
abababsg62
I1
sg108
Nsbag1
(g2
g3
Ntp238
Rp239
(dp240
g66
Nsg67
Nsg61
Nsg7
g1
(g8
g3
Ntp241
Rp242
(lp243
g1
(g12
g3
Ntp244
Rp245
(lp246
I0
ag1
(g16
g3
Ntp247
Rp248
(lp249
I0
aI0
abaS'base_link'
p250
abag1
(g21
g3
Ntp251
Rp252
(lp253
g1
(g25
g3
Ntp254
Rp255
(lp256
F0.5774546394821372
aF-0.04517284075428974
aF0.839308936777925
abag1
(g45
g3
Ntp257
Rp258
(lp259
F-0.9979621614464562
aF0.04887421112506435
aF-0.037878684843712485
aF-0.01574931879575737
abababsg62
I1
sg108
Nsbag1
(g2
g3
Ntp260
Rp261
(dp262
g66
Nsg67
Nsg61
Nsg7
g1
(g8
g3
Ntp263
Rp264
(lp265
g1
(g12
g3
Ntp266
Rp267
(lp268
I0
ag1
(g16
g3
Ntp269
Rp270
(lp271
I0
aI0
abaS'base_link'
p272
abag1
(g21
g3
Ntp273
Rp274
(lp275
g1
(g25
g3
Ntp276
Rp277
(lp278
F0.4736751940497697
aF-0.15318269421263245
aF0.8777427983341449
abag1
(g45
g3
Ntp279
Rp280
(lp281
F-0.9943805015457293
aF0.055949885342503836
aF-0.06366216432830281
aF-0.063436246018037
abababsg62
I1
sg108
Nsba.