(lp0
ccopy_reg
_reconstructor
p1
(cpbd.command
Command
p2
c__builtin__
object
p3
Ntp4
Rp5
(dp6
S'tilt'
p7
NsS'height'
p8
NsS'alias'
p9
NsS'pose_stamped'
p10
g1
(cgeometry_msgs.msg._PoseStamped
PoseStamped
p11
g3
Ntp12
Rp13
(lp14
g1
(cstd_msgs.msg._Header
Header
p15
g3
Ntp16
Rp17
(lp18
I0
ag1
(cgenpy.rostime
Time
p19
g3
Ntp20
Rp21
(lp22
I0
aI0
abaS'base_link'
p23
abag1
(cgeometry_msgs.msg._Pose
Pose
p24
g3
Ntp25
Rp26
(lp27
g1
(cgeometry_msgs.msg._Point
Point
p28
g3
Ntp29
Rp30
(lp31
F0.2708929851866136
aF0.3298163459391428
aF1.1801587805045872
abag1
(cgeometry_msgs.msg._Quaternion
Quaternion
p32
g3
Ntp33
Rp34
(lp35
F0.4098225884326455
aF0.6734528362916156
aF0.43677061090067104
aF-0.43328761435632995
abababsS'type'
p36
I1
sS'pan'
p37
Nsbag1
(g2
g3
Ntp38
Rp39
(dp40
g7
Nsg8
Nsg9
Nsg10
g1
(g11
g3
Ntp41
Rp42
(lp43
g1
(g15
g3
Ntp44
Rp45
(lp46
I0
ag1
(g19
g3
Ntp47
Rp48
(lp49
I0
aI0
abaS'ar_marker_13'
p50
abag1
(g24
g3
Ntp51
Rp52
(lp53
g1
(g28
g3
Ntp54
Rp55
(lp56
cnumpy.core.multiarray
scalar
p57
(cnumpy
dtype
p58
(S'f8'
p59
I0
I1
tp60
Rp61
(I3
S'<'
p62
NNNI-1
I-1
I0
tp63
bS'\xebL\xac\xf2\x85\xdb\xe1\xbf'
p64
tp65
Rp66
ag57
(g61
S'\xb0?\xfd-\xc0\x12\xd5\xbf'
p67
tp68
Rp69
ag57
(g61
S't$\xfa\xb5\x08}\xcb?'
p70
tp71
Rp72
abag1
(g32
g3
Ntp73
Rp74
(lp75
g57
(g61
S'\x1ag9\xf4\x88\xdb\xaf\xbf'
p76
tp77
Rp78
ag57
(g61
S'\xab>\xbf\x01\xb5\x1b\xe9?'
p79
tp80
Rp81
ag57
(g61
S'\x80\xa9\x9f%\x08\xa7\xad?'
p82
tp83
Rp84
ag57
(g61
S'!Z?X\xc2\xa6\xe3?'
p85
tp86
Rp87
abababsg36
I1
sg37
Nsba.