(lp0
ccopy_reg
_reconstructor
p1
(cpbd.command
Command
p2
c__builtin__
object
p3
Ntp4
Rp5
(dp6
S'tilt'
p7
NsS'height'
p8
NsS'alias'
p9
NsS'pose_stamped'
p10
g1
(cgeometry_msgs.msg._PoseStamped
PoseStamped
p11
g3
Ntp12
Rp13
(lp14
g1
(cstd_msgs.msg._Header
Header
p15
g3
Ntp16
Rp17
(lp18
I0
ag1
(cgenpy.rostime
Time
p19
g3
Ntp20
Rp21
(lp22
I0
aI0
abaS'ar_marker_13'
p23
abag1
(cgeometry_msgs.msg._Pose
Pose
p24
g3
Ntp25
Rp26
(lp27
g1
(cgeometry_msgs.msg._Point
Point
p28
g3
Ntp29
Rp30
(lp31
cnumpy.core.multiarray
scalar
p32
(cnumpy
dtype
p33
(S'f8'
p34
I0
I1
tp35
Rp36
(I3
S'<'
p37
NNNI-1
I-1
I0
tp38
bS'\xb8u\xcb\xa9\x80;\xc9\xbf'
p39
tp40
Rp41
ag32
(g36
S'\x80iJ\xb9c\xe2\xc4\xbf'
p42
tp43
Rp44
ag32
(g36
S'\x00&\xb8\xaa\xbb\x9b\xa6?'
p45
tp46
Rp47
abag1
(cgeometry_msgs.msg._Quaternion
Quaternion
p48
g3
Ntp49
Rp50
(lp51
g32
(g36
S'\x9d\x13\x02~\xa1\xcc\xbf\xbf'
p52
tp53
Rp54
ag32
(g36
S'\xd2ig\xdf\xc91\xe7?'
p55
tp56
Rp57
ag32
(g36
S'\x89B:\xb6\xbd\x8b\xb3\xbf'
p58
tp59
Rp60
ag32
(g36
S'2\xd5\x14z\xdf\x8b\xe5?'
p61
tp62
Rp63
abababsS'type'
p64
I1
sS'pan'
p65
Nsbag1
(g2
g3
Ntp66
Rp67
(dp68
g7
Nsg8
Nsg9
Nsg10
g1
(g11
g3
Ntp69
Rp70
(lp71
g1
(g15
g3
Ntp72
Rp73
(lp74
I0
ag1
(g19
g3
Ntp75
Rp76
(lp77
I0
aI0
abaS'ar_marker_13'
p78
abag1
(g24
g3
Ntp79
Rp80
(lp81
g1
(g28
g3
Ntp82
Rp83
(lp84
g32
(g36
S'\x8a\r\xa4\x9dVU\xc6\xbf'
p85
tp86
Rp87
ag32
(g36
S'`\xe1\x80\xe1\x97\xbe\xbe\xbf'
p88
tp89
Rp90
ag32
(g36
S'p^*v\x8d\x8b\xa7?'
p91
tp92
Rp93
abag1
(g48
g3
Ntp94
Rp95
(lp96
g32
(g36
S'\x1f&M?\xd6U\xc8\xbf'
p97
tp98
Rp99
ag32
(g36
S'\xe3\xd1v\xf6\xa3\x80\xe7?'
p100
tp101
Rp102
ag32
(g36
S'\xfe"\xa5\x16pO\xa3\xbf'
p103
tp104
Rp105
ag32
(g36
S'\xe4\x85\xb8K\x04\xd0\xe4?'
p106
tp107
Rp108
abababsg64
I1
sg65
Nsbag1
(g2
g3
Ntp109
Rp110
(dp111
g7
Nsg8
Nsg9
Nsg10
g1
(g11
g3
Ntp112
Rp113
(lp114
g1
(g15
g3
Ntp115
Rp116
(lp117
I0
ag1
(g19
g3
Ntp118
Rp119
(lp120
I0
aI0
abaS'base_link'
p121
abag1
(g24
g3
Ntp122
Rp123
(lp124
g1
(g28
g3
Ntp125
Rp126
(lp127
F0.5169592460690982
aF0.09371476570534773
aF1.0840700344478333
abag1
(g48
g3
Ntp128
Rp129
(lp130
F-0.606707129478539
aF-0.2671725671229466
aF0.20112347317388898
aF-0.721161997719873
abababsg64
I1
sg65
Nsba.