(lp0
ccopy_reg
_reconstructor
p1
(cpbd.command
Command
p2
c__builtin__
object
p3
Ntp4
Rp5
(dp6
S'tilt'
p7
NsS'height'
p8
NsS'alias'
p9
NsS'pose_stamped'
p10
g1
(cgeometry_msgs.msg._PoseStamped
PoseStamped
p11
g3
Ntp12
Rp13
(lp14
g1
(cstd_msgs.msg._Header
Header
p15
g3
Ntp16
Rp17
(lp18
I0
ag1
(cgenpy.rostime
Time
p19
g3
Ntp20
Rp21
(lp22
I0
aI0
abaS'ar_marker_13'
p23
abag1
(cgeometry_msgs.msg._Pose
Pose
p24
g3
Ntp25
Rp26
(lp27
g1
(cgeometry_msgs.msg._Point
Point
p28
g3
Ntp29
Rp30
(lp31
cnumpy.core.multiarray
scalar
p32
(cnumpy
dtype
p33
(S'f8'
p34
I0
I1
tp35
Rp36
(I3
S'<'
p37
NNNI-1
I-1
I0
tp38
bS'\xef\xfe\xc7_\xd0?\xc4\xbf'
p39
tp40
Rp41
ag32
(g36
S'\xf0F\xb9\xd2Fq\xc1\xbf'
p42
tp43
Rp44
ag32
(g36
S'\xb0K\xe5\x84\rM\xad?'
p45
tp46
Rp47
abag1
(cgeometry_msgs.msg._Quaternion
Quaternion
p48
g3
Ntp49
Rp50
(lp51
g32
(g36
S'8\xdez\x1a\x03<\xe3?'
p52
tp53
Rp54
ag32
(g36
S'\x9c\xefG\x08\xa8\xcd\xe0\xbf'
p55
tp56
Rp57
ag32
(g36
S'\xdc\xca\x86\x9d\xec^\xdb\xbf'
p58
tp59
Rp60
ag32
(g36
S'k\x16\x94\xc8\x8b(\xdb\xbf'
p61
tp62
Rp63
abababsS'type'
p64
I1
sS'pan'
p65
Nsbag1
(g2
g3
Ntp66
Rp67
(dp68
g7
Nsg8
Nsg9
Nsg10
g1
(g11
g3
Ntp69
Rp70
(lp71
g1
(g15
g3
Ntp72
Rp73
(lp74
I0
ag1
(g19
g3
Ntp75
Rp76
(lp77
I0
aI0
abaS'base_link'
p78
abag1
(g24
g3
Ntp79
Rp80
(lp81
g1
(g28
g3
Ntp82
Rp83
(lp84
F0.4230975449514463
aF0.41409608106176
aF1.1336564517230117
abag1
(g48
g3
Ntp85
Rp86
(lp87
F-0.04811431011396602
aF0.6913970421841704
aF-0.07760973494897619
aF0.7166811510444426
abababsg64
I1
sg65
Nsbag1
(g2
g3
Ntp88
Rp89
(dp90
g7
Nsg8
Nsg9
Nsg10
g1
(g11
g3
Ntp91
Rp92
(lp93
g1
(g15
g3
Ntp94
Rp95
(lp96
I0
ag1
(g19
g3
Ntp97
Rp98
(lp99
I0
aI0
abaS'base_link'
p100
abag1
(g24
g3
Ntp101
Rp102
(lp103
g1
(g28
g3
Ntp104
Rp105
(lp106
F0.39244310455777837
aF0.18876076162105995
aF0.9207054972471913
abag1
(g48
g3
Ntp107
Rp108
(lp109
F-0.6788048093634038
aF0.7261496008935971
aF-0.047415871532537075
aF-0.09839981216441748
abababsg64
I1
sg65
Nsba.