(lp0
ccopy_reg
_reconstructor
p1
(cpbd.command
Command
p2
c__builtin__
object
p3
Ntp4
Rp5
(dp6
S'tilt'
p7
NsS'height'
p8
NsS'alias'
p9
NsS'pose_stamped'
p10
g1
(cgeometry_msgs.msg._PoseStamped
PoseStamped
p11
g3
Ntp12
Rp13
(lp14
g1
(cstd_msgs.msg._Header
Header
p15
g3
Ntp16
Rp17
(lp18
I0
ag1
(cgenpy.rostime
Time
p19
g3
Ntp20
Rp21
(lp22
I0
aI0
abaS'ar_marker_13'
p23
abag1
(cgeometry_msgs.msg._Pose
Pose
p24
g3
Ntp25
Rp26
(lp27
g1
(cgeometry_msgs.msg._Point
Point
p28
g3
Ntp29
Rp30
(lp31
cnumpy.core.multiarray
scalar
p32
(cnumpy
dtype
p33
(S'f8'
p34
I0
I1
tp35
Rp36
(I3
S'<'
p37
NNNI-1
I-1
I0
tp38
bS'\xef\xfe\xc7_\xd0?\xc4\xbf'
p39
tp40
Rp41
ag32
(g36
S'\xf0F\xb9\xd2Fq\xc1\xbf'
p42
tp43
Rp44
ag32
(g36
S'\xb0K\xe5\x84\rM\xad?'
p45
tp46
Rp47
abag1
(cgeometry_msgs.msg._Quaternion
Quaternion
p48
g3
Ntp49
Rp50
(lp51
g32
(g36
S'8\xdez\x1a\x03<\xe3?'
p52
tp53
Rp54
ag32
(g36
S'\x9c\xefG\x08\xa8\xcd\xe0\xbf'
p55
tp56
Rp57
ag32
(g36
S'\xdc\xca\x86\x9d\xec^\xdb\xbf'
p58
tp59
Rp60
ag32
(g36
S'k\x16\x94\xc8\x8b(\xdb\xbf'
p61
tp62
Rp63
abababsS'type'
p64
I1
sS'pan'
p65
Nsbag1
(g2
g3
Ntp66
Rp67
(dp68
g7
Nsg8
Nsg9
Nsg10
g1
(g11
g3
Ntp69
Rp70
(lp71
g1
(g15
g3
Ntp72
Rp73
(lp74
I0
ag1
(g19
g3
Ntp75
Rp76
(lp77
I0
aI0
abaS'base_link'
p78
abag1
(g24
g3
Ntp79
Rp80
(lp81
g1
(g28
g3
Ntp82
Rp83
(lp84
F0.4230975449514463
aF0.41409608106176
aF1.1336564517230117
abag1
(g48
g3
Ntp85
Rp86
(lp87
F-0.04811431011396602
aF0.6913970421841704
aF-0.07760973494897619
aF0.7166811510444426
abababsg64
I1
sg65
Nsbag1
(g2
g3
Ntp88
Rp89
(dp90
g7
Nsg8
Nsg9
Nsg10
g1
(g11
g3
Ntp91
Rp92
(lp93
g1
(g15
g3
Ntp94
Rp95
(lp96
I0
ag1
(g19
g3
Ntp97
Rp98
(lp99
I0
aI0
abaS'base_link'
p100
abag1
(g24
g3
Ntp101
Rp102
(lp103
g1
(g28
g3
Ntp104
Rp105
(lp106
F0.39244310455777837
aF0.18876076162105995
aF0.9207054972471913
abag1
(g48
g3
Ntp107
Rp108
(lp109
F-0.6788048093634038
aF0.7261496008935971
aF-0.047415871532537075
aF-0.09839981216441748
abababsg64
I1
sg65
Nsbag1
(g2
g3
Ntp110
Rp111
(dp112
g7
Nsg8
Nsg9
Nsg10
g1
(g11
g3
Ntp113
Rp114
(lp115
g1
(g15
g3
Ntp116
Rp117
(lp118
I0
ag1
(g19
g3
Ntp119
Rp120
(lp121
I0
aI0
abaS'ar_marker_13'
p122
abag1
(g24
g3
Ntp123
Rp124
(lp125
g1
(g28
g3
Ntp126
Rp127
(lp128
g32
(g36
S'\xb2D\x90\x05\xa4\x97\xb6?'
p129
tp130
Rp131
ag32
(g36
S'\x02\xc4q\xe19\xa1\xdb\xbf'
p132
tp133
Rp134
ag32
(g36
S'\xa0\xd6\x01\x84\x1e)\xad\xbf'
p135
tp136
Rp137
abag1
(g48
g3
Ntp138
Rp139
(lp140
g32
(g36
S'M\xf4i,4\xf1\xe4?'
p141
tp142
Rp143
ag32
(g36
S'\t\xb3\xd7M\x86\xeb\xe7?'
p144
tp145
Rp146
ag32
(g36
S'\xa8\x8czO\xc8\x15\xac\xbf'
p147
tp148
Rp149
ag32
(g36
S'.\xd8\xe5]\x02\x85\xb9?'
p150
tp151
Rp152
abababsg64
I1
sg65
Nsbag1
(g2
g3
Ntp153
Rp154
(dp155
g7
Nsg8
Nsg9
Nsg10
g1
(g11
g3
Ntp156
Rp157
(lp158
g1
(g15
g3
Ntp159
Rp160
(lp161
I0
ag1
(g19
g3
Ntp162
Rp163
(lp164
I0
aI0
abaS'ar_marker_13'
p165
abag1
(g24
g3
Ntp166
Rp167
(lp168
g1
(g28
g3
Ntp169
Rp170
(lp171
g32
(g36
S'n\xf3v6\xb8\xdb\xa6?'
p172
tp173
Rp174
ag32
(g36
S'H\xcd\x84Q\xed\x83\xd7\xbf'
p175
tp176
Rp177
ag32
(g36
S'x\x8a\xb5G\xd9\x98\xbb\xbf'
p178
tp179
Rp180
abag1
(g48
g3
Ntp181
Rp182
(lp183
g32
(g36
S'\xaf\xe0\xab5D\xbe\xe5?'
p184
tp185
Rp186
ag32
(g36
S'\xe2\xcf\x95\xd0\x12`\xe7?'
p187
tp188
Rp189
ag32
(g36
S'\xbe0,\xde\xb3\xeb\x98\xbf'
p190
tp191
Rp192
ag32
(g36
S'\x7f\xe04\x0f\xe0o\xb0?'
p193
tp194
Rp195
abababsg64
I1
sg65
Nsbag1
(g2
g3
Ntp196
Rp197
(dp198
g7
Nsg8
Nsg9
Nsg10
g1
(g11
g3
Ntp199
Rp200
(lp201
g1
(g15
g3
Ntp202
Rp203
(lp204
I0
ag1
(g19
g3
Ntp205
Rp206
(lp207
I0
aI0
abaS'ar_marker_13'
p208
abag1
(g24
g3
Ntp209
Rp210
(lp211
g1
(g28
g3
Ntp212
Rp213
(lp214
g32
(g36
S':\x02v\xd4\xbb\xf9\xa6?'
p215
tp216
Rp217
ag32
(g36
S'\xfcR*6\xd2c\xd4\xbf'
p218
tp219
Rp220
ag32
(g36
S'\x18g\xf4\x8c\xbb\xb9\xbd\xbf'
p221
tp222
Rp223
abag1
(g48
g3
Ntp224
Rp225
(lp226
g32
(g36
S't\xbb\x9d\xcc\xb5\x9d\xe5?'
p227
tp228
Rp229
ag32
(g36
S'\x94\x1a\xca5 n\xe7?'
p230
tp231
Rp232
ag32
(g36
S'\xe9{\x03\x02\re\xa5\xbf'
p233
tp234
Rp235
ag32
(g36
S'(\x80\x0f\xc36\x92\xb3?'
p236
tp237
Rp238
abababsg64
I1
sg65
Nsbag1
(g2
g3
Ntp239
Rp240
(dp241
g7
Nsg8
Nsg9
Nsg10
g1
(g11
g3
Ntp242
Rp243
(lp244
g1
(g15
g3
Ntp245
Rp246
(lp247
I0
ag1
(g19
g3
Ntp248
Rp249
(lp250
I0
aI0
abaS'base_link'
p251
abag1
(g24
g3
Ntp252
Rp253
(lp254
g1
(g28
g3
Ntp255
Rp256
(lp257
F0.45753250758824154
aF-0.10498419630003326
aF0.9285674812528804
abag1
(g48
g3
Ntp258
Rp259
(lp260
F0.9987876753705769
aF-0.020948333735880516
aF-0.02595945403319133
aF0.036200187676683065
abababsg64
I1
sg65
Nsba.