(lp0
ccopy_reg
_reconstructor
p1
(cpbd.command
Command
p2
c__builtin__
object
p3
Ntp4
Rp5
(dp6
S'tilt'
p7
NsS'height'
p8
NsS'alias'
p9
NsS'pose_stamped'
p10
g1
(cgeometry_msgs.msg._PoseStamped
PoseStamped
p11
g3
Ntp12
Rp13
(lp14
g1
(cstd_msgs.msg._Header
Header
p15
g3
Ntp16
Rp17
(lp18
I0
ag1
(cgenpy.rostime
Time
p19
g3
Ntp20
Rp21
(lp22
I0
aI0
abaS'ar_marker_13'
p23
abag1
(cgeometry_msgs.msg._Pose
Pose
p24
g3
Ntp25
Rp26
(lp27
g1
(cgeometry_msgs.msg._Point
Point
p28
g3
Ntp29
Rp30
(lp31
cnumpy.core.multiarray
scalar
p32
(cnumpy
dtype
p33
(S'f8'
p34
I0
I1
tp35
Rp36
(I3
S'<'
p37
NNNI-1
I-1
I0
tp38
bS'\xfc\xa1\x98\xa1\xd2\xb9\xba?'
p39
tp40
Rp41
ag32
(g36
S'\xc0v\x84\xa4\x8b%\xda\xbf'
p42
tp43
Rp44
ag32
(g36
S'\xe8\x7fA=\x92k\xb2\xbf'
p45
tp46
Rp47
abag1
(cgeometry_msgs.msg._Quaternion
Quaternion
p48
g3
Ntp49
Rp50
(lp51
g32
(g36
S't\xd6\x1c\xd3\x9bl\xe3?'
p52
tp53
Rp54
ag32
(g36
S'&:~\xc5S\x17\xe9?'
p55
tp56
Rp57
ag32
(g36
S'lR!Q\x8dd\xbb\xbf'
p58
tp59
Rp60
ag32
(g36
S'\x91\xae\xa2\x17U\x9b\xb2?'
p61
tp62
Rp63
abababsS'type'
p64
I1
sS'pan'
p65
Nsbag1
(g2
g3
Ntp66
Rp67
(dp68
g7
Nsg8
Nsg9
Nsg10
g1
(g11
g3
Ntp69
Rp70
(lp71
g1
(g15
g3
Ntp72
Rp73
(lp74
I0
ag1
(g19
g3
Ntp75
Rp76
(lp77
I0
aI0
abaS'ar_marker_13'
p78
abag1
(g24
g3
Ntp79
Rp80
(lp81
g1
(g28
g3
Ntp82
Rp83
(lp84
g32
(g36
S'Z7\xce\xc5\x19M\xaf?'
p85
tp86
Rp87
ag32
(g36
S'\xf2\x0e\xc8\t4\xd5\xd5\xbf'
p88
tp89
Rp90
ag32
(g36
S'\xa0\xd4\xae\xb7\x8f\x9d\xbb\xbf'
p91
tp92
Rp93
abag1
(g48
g3
Ntp94
Rp95
(lp96
g32
(g36
S'\xcc\xc1`\xd9\x88\xdc\xe4?'
p97
tp98
Rp99
ag32
(g36
S'\xa54\xb2\xa2\x15\x05\xe8?'
p100
tp101
Rp102
ag32
(g36
S'\xda\xaf\xf5\xa9\xa4\x8f\xb5\xbf'
p103
tp104
Rp105
ag32
(g36
S'\x1b?\xaf)\xcb\x1f\xb1?'
p106
tp107
Rp108
abababsg64
I1
sg65
Nsbag1
(g2
g3
Ntp109
Rp110
(dp111
g7
Nsg8
Nsg9
Nsg10
g1
(g11
g3
Ntp112
Rp113
(lp114
g1
(g15
g3
Ntp115
Rp116
(lp117
I0
ag1
(g19
g3
Ntp118
Rp119
(lp120
I0
aI0
abaS'ar_marker_13'
p121
abag1
(g24
g3
Ntp122
Rp123
(lp124
g1
(g28
g3
Ntp125
Rp126
(lp127
g32
(g36
S'\xdc\x08\xfb\x9cF"\xa3?'
p128
tp129
Rp130
ag32
(g36
S'\xf0\xd0(\xf6`\xb3\xd4\xbf'
p131
tp132
Rp133
ag32
(g36
S'H\x14;\x1a\xa0\x16\xbb\xbf'
p134
tp135
Rp136
abag1
(g48
g3
Ntp137
Rp138
(lp139
g32
(g36
S'\xd0\x85\xfe \x97\xc1\xe5?'
p140
tp141
Rp142
ag32
(g36
S'\xdd\xe8\xdf\xe168\xe7?'
p143
tp144
Rp145
ag32
(g36
S'\xf6\x94Z,\xc7\xee\xb2\xbf'
p146
tp147
Rp148
ag32
(g36
S'O\xdc\x9a\xae\xd5u\xb3?'
p149
tp150
Rp151
abababsg64
I1
sg65
Nsbag1
(g2
g3
Ntp152
Rp153
(dp154
g7
Nsg8
Nsg9
Nsg10
g1
(g11
g3
Ntp155
Rp156
(lp157
g1
(g15
g3
Ntp158
Rp159
(lp160
I0
ag1
(g19
g3
Ntp161
Rp162
(lp163
I0
aI0
abaS'base_link'
p164
abag1
(g24
g3
Ntp165
Rp166
(lp167
g1
(g28
g3
Ntp168
Rp169
(lp170
F0.5260005185251687
aF-0.09272995852597798
aF0.9193541050255305
abag1
(g48
g3
Ntp171
Rp172
(lp173
F0.9965873443806447
aF0.07943661060348826
aF0.018005299657758357
aF-0.013390261401406773
abababsg64
I1
sg65
Nsba.