(lp0
ccopy_reg
_reconstructor
p1
(cpbd.command
Command
p2
c__builtin__
object
p3
Ntp4
Rp5
(dp6
S'tilt'
p7
NsS'height'
p8
F0.35
sS'alias'
p9
NsS'pose_stamped'
p10
NsS'type'
p11
I4
sS'pan'
p12
Nsbag1
(g2
g3
Ntp13
Rp14
(dp15
g7
Nsg8
Nsg9
S'food_id'
p16
sg10
g1
(cgeometry_msgs.msg._PoseStamped
PoseStamped
p17
g3
Ntp18
Rp19
(lp20
g1
(cstd_msgs.msg._Header
Header
p21
g3
Ntp22
Rp23
(lp24
I0
ag1
(cgenpy.rostime
Time
p25
g3
Ntp26
Rp27
(lp28
I0
aI0
abaS'ar_marker_10'
p29
abag1
(cgeometry_msgs.msg._Pose
Pose
p30
g3
Ntp31
Rp32
(lp33
g1
(cgeometry_msgs.msg._Point
Point
p34
g3
Ntp35
Rp36
(lp37
cnumpy.core.multiarray
scalar
p38
(cnumpy
dtype
p39
(S'f8'
p40
I0
I1
tp41
Rp42
(I3
S'<'
p43
NNNI-1
I-1
I0
tp44
bS',X\x02f\xe6-\xda\xbf'
p45
tp46
Rp47
ag38
(g42
S'\xfa\xf8\xd8\\\xf0\x04\xad?'
p48
tp49
Rp50
ag38
(g42
S'\xb0\xcc%\x82b[\xa5\xbf'
p51
tp52
Rp53
abag1
(cgeometry_msgs.msg._Quaternion
Quaternion
p54
g3
Ntp55
Rp56
(lp57
g38
(g42
S':L\x8a\xfe\xbf\xd3\xef?'
p58
tp59
Rp60
ag38
(g42
S'\xea\xb3\xba\xa9b\xdc\xb5\xbf'
p61
tp62
Rp63
ag38
(g42
S'\xf9S\xa4\x01\xa3\x17\xab?'
p64
tp65
Rp66
ag38
(g42
S'\x8as\x9a\x05\x9d\xbd\x9a?'
p67
tp68
Rp69
abababsg11
I1
sg12
Nsbag1
(g2
g3
Ntp70
Rp71
(dp72
g7
Nsg8
Nsg9
S'food_id'
p73
sg10
g1
(g17
g3
Ntp74
Rp75
(lp76
g1
(g21
g3
Ntp77
Rp78
(lp79
I0
ag1
(g25
g3
Ntp80
Rp81
(lp82
I0
aI0
abaS'ar_marker_10'
p83
abag1
(g30
g3
Ntp84
Rp85
(lp86
g1
(g34
g3
Ntp87
Rp88
(lp89
g38
(g42
S'\xf6\xec\x13\xc5\xfa \xd3\xbf'
p90
tp91
Rp92
ag38
(g42
S'\x98\xe56\xcb(\xe9\x87?'
p93
tp94
Rp95
ag38
(g42
S'`?\x1c\xb0\xbe\x14\xb1\xbf'
p96
tp97
Rp98
abag1
(g54
g3
Ntp99
Rp100
(lp101
g38
(g42
S'\x8f\x8b\x06a\x99\xec\xef?'
p102
tp103
Rp104
ag38
(g42
S'X\\m}\x05\xbc\x81\xbf'
p105
tp106
Rp107
ag38
(g42
S'\x08y7\xe1\x9b\x83\xaf?'
p108
tp109
Rp110
ag38
(g42
S'\x94ei(\xad(\x9e?'
p111
tp112
Rp113
abababsg11
I1
sg12
Nsbag1
(g2
g3
Ntp114
Rp115
(dp116
g7
Nsg8
Nsg9
Nsg10
Nsg11
I3
sg12
Nsbag1
(g2
g3
Ntp117
Rp118
(dp119
g7
Nsg8
Nsg9
Nsg10
g1
(g17
g3
Ntp120
Rp121
(lp122
g1
(g21
g3
Ntp123
Rp124
(lp125
I0
ag1
(g25
g3
Ntp126
Rp127
(lp128
I0
aI0
abaS'ar_marker_13'
p129
abag1
(g30
g3
Ntp130
Rp131
(lp132
g1
(g34
g3
Ntp133
Rp134
(lp135
g38
(g42
S'\x054\xd5V\xe9@\x9d\xbf'
p136
tp137
Rp138
ag38
(g42
S'\x1c\xad\xd0\xac\x8a\xd5\xd8\xbf'
p139
tp140
Rp141
ag38
(g42
S'h\x82\x12\xa5\x8f\x9b\xb7\xbf'
p142
tp143
Rp144
abag1
(g54
g3
Ntp145
Rp146
(lp147
g38
(g42
S'\xa0\x06\xbf\xbbm\x91\xda?'
p148
tp149
Rp150
ag38
(g42
S'}x\x92\xe2\x18\xf0\xec?'
p151
tp152
Rp153
ag38
(g42
S'{X9B\xcf\xb3\xb4\xbf'
p154
tp155
Rp156
ag38
(g42
S'Z\xe0\x92\xdcK\xa9\xad\xbf'
p157
tp158
Rp159
abababsg11
I1
sg12
Nsbag1
(g2
g3
Ntp160
Rp161
(dp162
g7
Nsg8
Nsg9
Nsg10
g1
(g17
g3
Ntp163
Rp164
(lp165
g1
(g21
g3
Ntp166
Rp167
(lp168
I0
ag1
(g25
g3
Ntp169
Rp170
(lp171
I0
aI0
abaS'base_link'
p172
abag1
(g30
g3
Ntp173
Rp174
(lp175
g1
(g34
g3
Ntp176
Rp177
(lp178
F0.40812694243882114
aF-0.1251607994320805
aF0.9141046687651346
abag1
(g54
g3
Ntp179
Rp180
(lp181
F0.8381270430122657
aF0.5378846005748663
aF0.08822752093576702
aF-0.02095520902927447
abababsg11
I1
sg12
Nsbag1
(g2
g3
Ntp182
Rp183
(dp184
g7
Nsg8
Nsg9
Nsg10
g1
(g17
g3
Ntp185
Rp186
(lp187
g1
(g21
g3
Ntp188
Rp189
(lp190
I0
ag1
(g25
g3
Ntp191
Rp192
(lp193
I0
aI0
abaS'base_link'
p194
abag1
(g30
g3
Ntp195
Rp196
(lp197
g1
(g34
g3
Ntp198
Rp199
(lp200
F0.12412697701465074
aF-0.3937912082248855
aF0.9181683767856963
abag1
(g54
g3
Ntp201
Rp202
(lp203
F0.9941881480582697
aF0.030542745296440636
aF0.1011177007017438
aF0.020791286035671635
abababsg11
I1
sg12
Nsbag1
(g2
g3
Ntp204
Rp205
(dp206
g7
Nsg8
F0.4
sg9
Nsg10
Nsg11
I4
sg12
Nsba.