(lp0
ccopy_reg
_reconstructor
p1
(cpbd.command
Command
p2
c__builtin__
object
p3
Ntp4
Rp5
(dp6
S'tilt'
p7
NsS'height'
p8
NsS'alias'
p9
NsS'pose_stamped'
p10
g1
(cgeometry_msgs.msg._PoseStamped
PoseStamped
p11
g3
Ntp12
Rp13
(lp14
g1
(cstd_msgs.msg._Header
Header
p15
g3
Ntp16
Rp17
(lp18
I0
ag1
(cgenpy.rostime
Time
p19
g3
Ntp20
Rp21
(lp22
I0
aI0
abaS'ar_marker_13'
p23
abag1
(cgeometry_msgs.msg._Pose
Pose
p24
g3
Ntp25
Rp26
(lp27
g1
(cgeometry_msgs.msg._Point
Point
p28
g3
Ntp29
Rp30
(lp31
cnumpy.core.multiarray
scalar
p32
(cnumpy
dtype
p33
(S'f8'
p34
I0
I1
tp35
Rp36
(I3
S'<'
p37
NNNI-1
I-1
I0
tp38
bS'\xae\xb1\xd3r\xedh\xc8\xbf'
p39
tp40
Rp41
ag32
(g36
S'\xe0\x00\x12d\xc4\xd5\xd8\xbf'
p42
tp43
Rp44
ag32
(g36
S'hj\xb1\\\x1f\x8e\xb5\xbf'
p45
tp46
Rp47
abag1
(cgeometry_msgs.msg._Quaternion
Quaternion
p48
g3
Ntp49
Rp50
(lp51
g32
(g36
S'\xe3\xa8\xc2\x8au\xe7\xe3?'
p52
tp53
Rp54
ag32
(g36
S'?"<8\x90\xe8\xe8?'
p55
tp56
Rp57
ag32
(g36
S'\xd6\xf5XU\xc6v\x97\xbf'
p58
tp59
Rp60
ag32
(g36
S'\xf0{Q(\xc5\xf2\xb4?'
p61
tp62
Rp63
abababsS'type'
p64
I1
sS'pan'
p65
Nsbag1
(g2
g3
Ntp66
Rp67
(dp68
g7
Nsg8
Nsg9
S'food_id'
p69
sg10
g1
(g11
g3
Ntp70
Rp71
(lp72
g1
(g15
g3
Ntp73
Rp74
(lp75
I0
ag1
(g19
g3
Ntp76
Rp77
(lp78
I0
aI0
abaS'ar_marker_10'
p79
abag1
(g24
g3
Ntp80
Rp81
(lp82
g1
(g28
g3
Ntp83
Rp84
(lp85
g32
(g36
S'\xa6\xff\xbd\xe3M\x9d\xd6\xbf'
p86
tp87
Rp88
ag32
(g36
S'\xe8\xcc%\xbb\xea\x16\xad\xbf'
p89
tp90
Rp91
ag32
(g36
S'H\x82\x19\xaai\xed\xb1\xbf'
p92
tp93
Rp94
abag1
(g48
g3
Ntp95
Rp96
(lp97
g32
(g36
S'\x8e\xd0\x020\xe0\xce\xef?'
p98
tp99
Rp100
ag32
(g36
S'|H\x8b\x16\xe3V\xb4?'
p101
tp102
Rp103
ag32
(g36
S'o\x06GQ\xbd\xcd\xa9?'
p104
tp105
Rp106
ag32
(g36
S'/>\x0b\xe3\x8c\x87\xac?'
p107
tp108
Rp109
abababsg64
I1
sg65
Nsbag1
(g2
g3
Ntp110
Rp111
(dp112
g7
Nsg8
Nsg9
S'food_id'
p113
sg10
g1
(g11
g3
Ntp114
Rp115
(lp116
g1
(g15
g3
Ntp117
Rp118
(lp119
I0
ag1
(g19
g3
Ntp120
Rp121
(lp122
I0
aI0
abaS'ar_marker_10'
p123
abag1
(g24
g3
Ntp124
Rp125
(lp126
g1
(g28
g3
Ntp127
Rp128
(lp129
g32
(g36
S'<\x9ap]ng\xd3\xbf'
p130
tp131
Rp132
ag32
(g36
S'\xe0\x17\xfdx\x1e\x9a\x9e\xbf'
p133
tp134
Rp135
ag32
(g36
S'\x00\x89\xec{~\xfa\xae\xbf'
p136
tp137
Rp138
abag1
(g48
g3
Ntp139
Rp140
(lp141
g32
(g36
S'\x94\xefKx\xd2\xea\xef?'
p142
tp143
Rp144
ag32
(g36
S"\xf6\x13a'\xf2m\xaa?"
p145
tp146
Rp147
ag32
(g36
S'C:d\x83rY\xa5?'
p148
tp149
Rp150
ag32
(g36
S'k;\xae\tc<\x9c?'
p151
tp152
Rp153
abababsg64
I1
sg65
Nsbag1
(g2
g3
Ntp154
Rp155
(dp156
g7
Nsg8
Nsg9
Nsg10
Nsg64
I3
sg65
Nsba.