(lp0
ccopy_reg
_reconstructor
p1
(cpbd.command
Command
p2
c__builtin__
object
p3
Ntp4
Rp5
(dp6
S'tilt'
p7
NsS'height'
p8
NsS'alias'
p9
S'food_id'
p10
sS'pose_stamped'
p11
g1
(cgeometry_msgs.msg._PoseStamped
PoseStamped
p12
g3
Ntp13
Rp14
(lp15
g1
(cstd_msgs.msg._Header
Header
p16
g3
Ntp17
Rp18
(lp19
I0
ag1
(cgenpy.rostime
Time
p20
g3
Ntp21
Rp22
(lp23
I0
aI0
abaS'ar_marker_10'
p24
abag1
(cgeometry_msgs.msg._Pose
Pose
p25
g3
Ntp26
Rp27
(lp28
g1
(cgeometry_msgs.msg._Point
Point
p29
g3
Ntp30
Rp31
(lp32
cnumpy.core.multiarray
scalar
p33
(cnumpy
dtype
p34
(S'f8'
p35
I0
I1
tp36
Rp37
(I3
S'<'
p38
NNNI-1
I-1
I0
tp39
bS'F\xc6\x08\xfd\x00/\xb3\xbf'
p40
tp41
Rp42
ag33
(g37
S'\xf6\xbd\x9c\x90^\xb1\xd7\xbf'
p43
tp44
Rp45
ag33
(g37
S'PeG\xc1\x1d\xa5\xb6\xbf'
p46
tp47
Rp48
abag1
(cgeometry_msgs.msg._Quaternion
Quaternion
p49
g3
Ntp50
Rp51
(lp52
g33
(g37
S'\x01I\x14u9H\xe0?'
p53
tp54
Rp55
ag33
(g37
S'*\x19\x1e\xef\x1cM\xeb?'
p56
tp57
Rp58
ag33
(g37
S'Z;\x1b\x18\xa1E\xbd\xbf'
p59
tp60
Rp61
ag33
(g37
S')\\(\xe2n\x90\x88?'
p62
tp63
Rp64
abababsS'type'
p65
I1
sS'pan'
p66
Nsbag1
(g2
g3
Ntp67
Rp68
(dp69
g7
Nsg8
Nsg9
S'food_id'
p70
sg11
g1
(g12
g3
Ntp71
Rp72
(lp73
g1
(g16
g3
Ntp74
Rp75
(lp76
I0
ag1
(g20
g3
Ntp77
Rp78
(lp79
I0
aI0
abag24
abag1
(g25
g3
Ntp80
Rp81
(lp82
g1
(g29
g3
Ntp83
Rp84
(lp85
g33
(g37
S'&\x80\x1a \xf8\t\xc1\xbf'
p86
tp87
Rp88
ag33
(g37
S'\x98\xc55g\xe7\xcb\xce\xbf'
p89
tp90
Rp91
ag33
(g37
S'\xb0\x1d^$s>\xba\xbf'
p92
tp93
Rp94
abag1
(g49
g3
Ntp95
Rp96
(lp97
g33
(g37
S'\x19\x9e\x1fzYR\xe0?'
p98
tp99
Rp100
ag33
(g37
S'\x80\xe4\xbfx,$\xeb?'
p101
tp102
Rp103
ag33
(g37
S'\xad\x89m\x06\x94\xc7\xba\xbf'
p104
tp105
Rp106
ag33
(g37
S'\xa1\xdcs\x0b\xe9\xf9\xb8?'
p107
tp108
Rp109
abababsg65
I1
sg66
Nsbag1
(g2
g3
Ntp110
Rp111
(dp112
g7
Nsg8
Nsg9
Nsg11
Nsg65
I3
sg66
Nsba.