ccopy_reg
_reconstructor
p0
(c__main__
Program
p1
c__builtin__
object
p2
Ntp3
Rp4
(dp5
S'commands'
p6
(lp7
g0
(c__main__
Command
p8
g2
Ntp9
Rp10
(dp11
S'pose_stamped'
p12
g0
(cgeometry_msgs.msg._PoseStamped
PoseStamped
p13
g2
Ntp14
Rp15
(lp16
g0
(cstd_msgs.msg._Header
Header
p17
g2
Ntp18
Rp19
(lp20
I0
ag0
(cgenpy.rostime
Time
p21
g2
Ntp22
Rp23
(lp24
I0
aI0
abaS'ar_marker_16'
p25
abag0
(cgeometry_msgs.msg._Pose
Pose
p26
g2
Ntp27
Rp28
(lp29
g0
(cgeometry_msgs.msg._Point
Point
p30
g2
Ntp31
Rp32
(lp33
F-0.14024525603895466
aF-0.02864061286373032
aF0.27949630819094984
abag0
(cgeometry_msgs.msg._Quaternion
Quaternion
p34
g2
Ntp35
Rp36
(lp37
F-0.9944011777882773
aF-0.07796114516341929
aF0.024975653716119723
aF0.0668174691195762
abababsS'type'
p38
I1
sbag0
(g8
g2
Ntp39
Rp40
(dp41
g12
g0
(g13
g2
Ntp42
Rp43
(lp44
g0
(g17
g2
Ntp45
Rp46
(lp47
I0
ag0
(g21
g2
Ntp48
Rp49
(lp50
I0
aI0
abaS'ar_marker_16'
p51
abag0
(g26
g2
Ntp52
Rp53
(lp54
g0
(g30
g2
Ntp55
Rp56
(lp57
F-0.1439293051946735
aF0.11202431922375333
aF0.2667128883756602
abag0
(g34
g2
Ntp58
Rp59
(lp60
F-0.943514444790215
aF-0.3293362264687665
aF-0.03194698396348263
aF0.017249133982961008
abababsg38
I1
sbasb.