(lp0
ccopy_reg
_reconstructor
p1
(cpbd.command
Command
p2
c__builtin__
object
p3
Ntp4
Rp5
(dp6
S'pose_stamped'
p7
g1
(cgeometry_msgs.msg._PoseStamped
PoseStamped
p8
g3
Ntp9
Rp10
(lp11
g1
(cstd_msgs.msg._Header
Header
p12
g3
Ntp13
Rp14
(lp15
I0
ag1
(cgenpy.rostime
Time
p16
g3
Ntp17
Rp18
(lp19
I0
aI0
abaS'base_link'
p20
abag1
(cgeometry_msgs.msg._Pose
Pose
p21
g3
Ntp22
Rp23
(lp24
g1
(cgeometry_msgs.msg._Point
Point
p25
g3
Ntp26
Rp27
(lp28
F0.4224153182724321
aF-0.26382710239214463
aF0.9110296138037397
abag1
(cgeometry_msgs.msg._Quaternion
Quaternion
p29
g3
Ntp30
Rp31
(lp32
F0.048314841111313234
aF0.00950671348971676
aF0.07771371842655533
aF0.9957589449737979
abababsS'alias'
p33
NsS'type'
p34
I1
sbag1
(g2
g3
Ntp35
Rp36
(dp37
g7
g1
(g8
g3
Ntp38
Rp39
(lp40
g1
(g12
g3
Ntp41
Rp42
(lp43
I0
ag1
(g16
g3
Ntp44
Rp45
(lp46
I0
aI0
abaS'base_link'
p47
abag1
(g21
g3
Ntp48
Rp49
(lp50
g1
(g25
g3
Ntp51
Rp52
(lp53
F0.45965047478185855
aF-0.15091143468715465
aF0.9102356858415821
abag1
(g29
g3
Ntp54
Rp55
(lp56
F0.04054980299394016
aF0.0239403500185941
aF0.3033015763116991
aF0.9517303856266115
abababsg33
Nsg34
I1
sbag1
(g2
g3
Ntp57
Rp58
(dp59
g7
g1
(g8
g3
Ntp60
Rp61
(lp62
g1
(g12
g3
Ntp63
Rp64
(lp65
I0
ag1
(g16
g3
Ntp66
Rp67
(lp68
I0
aI0
abaS'base_link'
p69
abag1
(g21
g3
Ntp70
Rp71
(lp72
g1
(g25
g3
Ntp73
Rp74
(lp75
F0.5293490660187584
aF0.04453488241022483
aF0.9226486531720781
abag1
(g29
g3
Ntp76
Rp77
(lp78
F0.05001776211283057
aF-0.02362565129752188
aF0.2545311881763877
aF0.9654811890034466
abababsg33
Nsg34
I1
sbag1
(g2
g3
Ntp79
Rp80
(dp81
g7
g1
(g8
g3
Ntp82
Rp83
(lp84
g1
(g12
g3
Ntp85
Rp86
(lp87
I0
ag1
(g16
g3
Ntp88
Rp89
(lp90
I0
aI0
abaS'base_link'
p91
abag1
(g21
g3
Ntp92
Rp93
(lp94
g1
(g25
g3
Ntp95
Rp96
(lp97
F0.5454683649867988
aF0.04337382493761436
aF0.9240006243646669
abag1
(g29
g3
Ntp98
Rp99
(lp100
F0.036441886385424976
aF-0.02998056939377554
aF0.2549060698396759
aF0.9658136724722773
abababsg33
Nsg34
I1
sbag1
(g2
g3
Ntp101
Rp102
(dp103
g7
g1
(g8
g3
Ntp104
Rp105
(lp106
g1
(g12
g3
Ntp107
Rp108
(lp109
I0
ag1
(g16
g3
Ntp110
Rp111
(lp112
I0
aI0
abaS'base_link'
p113
abag1
(g21
g3
Ntp114
Rp115
(lp116
g1
(g25
g3
Ntp117
Rp118
(lp119
F0.5454683649867988
aF0.04337382493761436
aF0.9240006243646669
abag1
(g29
g3
Ntp120
Rp121
(lp122
F0.036441886385424976
aF-0.02998056939377554
aF0.2549060698396759
aF0.9658136724722773
abababsg33
Nsg34
I1
sbag1
(g2
g3
Ntp123
Rp124
(dp125
g7
g1
(g8
g3
Ntp126
Rp127
(lp128
g1
(g12
g3
Ntp129
Rp130
(lp131
I0
ag1
(g16
g3
Ntp132
Rp133
(lp134
I0
aI0
abaS'base_link'
p135
abag1
(g21
g3
Ntp136
Rp137
(lp138
g1
(g25
g3
Ntp139
Rp140
(lp141
F0.5454683649867988
aF0.04337382493761436
aF0.9240006243646669
abag1
(g29
g3
Ntp142
Rp143
(lp144
F0.036441886385424976
aF-0.02998056939377554
aF0.2549060698396759
aF0.9658136724722773
abababsg33
Nsg34
I1
sbag1
(g2
g3
Ntp145
Rp146
(dp147
g7
Nsg33
Nsg34
I2
sba.