ccopy_reg
_reconstructor
p0
(c__main__
Program
p1
c__builtin__
object
p2
Ntp3
Rp4
(dp5
S'commands'
p6
(lp7
g0
(c__main__
Command
p8
g2
Ntp9
Rp10
(dp11
S'pose_stamped'
p12
g0
(cgeometry_msgs.msg._PoseStamped
PoseStamped
p13
g2
Ntp14
Rp15
(lp16
g0
(cstd_msgs.msg._Header
Header
p17
g2
Ntp18
Rp19
(lp20
I0
ag0
(cgenpy.rostime
Time
p21
g2
Ntp22
Rp23
(lp24
I0
aI0
abaS'base_link'
p25
abag0
(cgeometry_msgs.msg._Pose
Pose
p26
g2
Ntp27
Rp28
(lp29
g0
(cgeometry_msgs.msg._Point
Point
p30
g2
Ntp31
Rp32
(lp33
F0.3498471741689972
aF-0.502628568830846
aF1.0753799848569983
abag0
(cgeometry_msgs.msg._Quaternion
Quaternion
p34
g2
Ntp35
Rp36
(lp37
F0.09959903559927777
aF0.13332051508149942
aF0.37224515836138755
aF-0.9130932123516212
abababsS'type'
p38
I1
sbag0
(g8
g2
Ntp39
Rp40
(dp41
g12
g0
(g13
g2
Ntp42
Rp43
(lp44
g0
(g17
g2
Ntp45
Rp46
(lp47
I0
ag0
(g21
g2
Ntp48
Rp49
(lp50
I0
aI0
abaS'ar_marker_16'
p51
abag0
(g26
g2
Ntp52
Rp53
(lp54
g0
(g30
g2
Ntp55
Rp56
(lp57
cnumpy.core.multiarray
scalar
p58
(cnumpy
dtype
p59
(S'f8'
p60
I0
I1
tp61
Rp62
(I3
S'<'
p63
NNNI-1
I-1
I0
tp64
bS'p\xaa]U1-\xa7?'
p65
tp66
Rp67
ag58
(g62
S'\x84a8\x1b>\xa1\xc8?'
p68
tp69
Rp70
ag58
(g62
S'\xff+\xd4\xc9\xcah\xd3?'
p71
tp72
Rp73
abag0
(g34
g2
Ntp74
Rp75
(lp76
g58
(g62
S'\xc2\xdft\n\x1c\xdf\xda\xbf'
p77
tp78
Rp79
ag58
(g62
S'\xbf\xbe\xde\x9d,\xca\xd0?'
p80
tp81
Rp82
ag58
(g62
S'\xc9\xf3\x04\xac8d\xe2?'
p83
tp84
Rp85
ag58
(g62
S'$\xb0C\xda\xd3\xd9\xe4?'
p86
tp87
Rp88
abababsg38
I1
sbag0
(g8
g2
Ntp89
Rp90
(dp91
g12
g0
(g13
g2
Ntp92
Rp93
(lp94
g0
(g17
g2
Ntp95
Rp96
(lp97
I0
ag0
(g21
g2
Ntp98
Rp99
(lp100
I0
aI0
abaS'ar_marker_16'
p101
abag0
(g26
g2
Ntp102
Rp103
(lp104
g0
(g30
g2
Ntp105
Rp106
(lp107
g58
(g62
S'@H\x92\x12\x0c\xb0\x80\xbf'
p108
tp109
Rp110
ag58
(g62
S'\x00\x10&\x95y\xf2C\xbf'
p111
tp112
Rp113
ag58
(g62
S'r\x1b\xa8\x18\x95\x8b\xc1?'
p114
tp115
Rp116
abag0
(g34
g2
Ntp117
Rp118
(lp119
g58
(g62
S'\x10\xce\x16`ko\xdf\xbf'
p120
tp121
Rp122
ag58
(g62
S'\x1d\x88\x87\xbf\x19\x90\xdd?'
p123
tp124
Rp125
ag58
(g62
S'ZY\xa0e\x15\xdf\xdf?'
p126
tp127
Rp128
ag58
(g62
S'b\xb3lLQs\xe1?'
p129
tp130
Rp131
abababsg38
I1
sbag0
(g8
g2
Ntp132
Rp133
(dp134
g12
Nsg38
I3
sbag0
(g8
g2
Ntp135
Rp136
(dp137
g12
g0
(g13
g2
Ntp138
Rp139
(lp140
g0
(g17
g2
Ntp141
Rp142
(lp143
I0
ag0
(g21
g2
Ntp144
Rp145
(lp146
I0
aI0
abaS'base_link'
p147
abag0
(g26
g2
Ntp148
Rp149
(lp150
g0
(g30
g2
Ntp151
Rp152
(lp153
F0.6149353437604019
aF-0.08142826851888528
aF1.1204866993548293
abag0
(g34
g2
Ntp154
Rp155
(lp156
F0.050401863383683056
aF0.209329348211842
aF-0.05018682159933805
aF-0.9752549200503493
abababsg38
I1
sbag0
(g8
g2
Ntp157
Rp158
(dp159
g12
g0
(g13
g2
Ntp160
Rp161
(lp162
g0
(g17
g2
Ntp163
Rp164
(lp165
I0
ag0
(g21
g2
Ntp166
Rp167
(lp168
I0
aI0
abaS'ar_marker_14'
p169
abag0
(g26
g2
Ntp170
Rp171
(lp172
g0
(g30
g2
Ntp173
Rp174
(lp175
g58
(g62
S'\xc2>\x92\x8f}\xc6\xb7?'
p176
tp177
Rp178
ag58
(g62
S'\xf0l\xa6`\xc3W\xc1?'
p179
tp180
Rp181
ag58
(g62
S'\xa0\xb9\x11\xa7\xe8\xe0\xb1?'
p182
tp183
Rp184
abag0
(g34
g2
Ntp185
Rp186
(lp187
g58
(g62
S'\x86\x13Y\x05\xaa\x03\xd3\xbf'
p188
tp189
Rp190
ag58
(g62
S'\xca\xd6\xdd\x90\xa8\xca\xe0?'
p191
tp192
Rp193
ag58
(g62
S"'\xf0\xc7k\x02\x86\xe4?"
p194
tp195
Rp196
ag58
(g62
S'w]\x19PR\\\xde?'
p197
tp198
Rp199
abababsg38
I1
sbag0
(g8
g2
Ntp200
Rp201
(dp202
g12
Nsg38
I2
sbasb.