ccopy_reg
_reconstructor
p0
(c__main__
Program
p1
c__builtin__
object
p2
Ntp3
Rp4
(dp5
S'commands'
p6
(lp7
g0
(c__main__
Command
p8
g2
Ntp9
Rp10
(dp11
S'pose_stamped'
p12
NsS'type'
p13
I3
sbag0
(g8
g2
Ntp14
Rp15
(dp16
g12
g0
(cgeometry_msgs.msg._PoseStamped
PoseStamped
p17
g2
Ntp18
Rp19
(lp20
g0
(cstd_msgs.msg._Header
Header
p21
g2
Ntp22
Rp23
(lp24
I0
ag0
(cgenpy.rostime
Time
p25
g2
Ntp26
Rp27
(lp28
I0
aI0
abaS'base_link'
p29
abag0
(cgeometry_msgs.msg._Pose
Pose
p30
g2
Ntp31
Rp32
(lp33
g0
(cgeometry_msgs.msg._Point
Point
p34
g2
Ntp35
Rp36
(lp37
F0.4595661069171864
aF-0.5268365509510169
aF1.103563730803842
abag0
(cgeometry_msgs.msg._Quaternion
Quaternion
p38
g2
Ntp39
Rp40
(lp41
F0.989471604868618
aF-0.05949923137383467
aF0.07347331528511362
aF-0.1095785406257
abababsg13
I1
sbag0
(g8
g2
Ntp42
Rp43
(dp44
g12
g0
(g17
g2
Ntp45
Rp46
(lp47
g0
(g21
g2
Ntp48
Rp49
(lp50
I0
ag0
(g25
g2
Ntp51
Rp52
(lp53
I0
aI0
abaS'ar_marker_14'
p54
abag0
(g30
g2
Ntp55
Rp56
(lp57
g0
(g34
g2
Ntp58
Rp59
(lp60
cnumpy.core.multiarray
scalar
p61
(cnumpy
dtype
p62
(S'f8'
p63
I0
I1
tp64
Rp65
(I3
S'<'
p66
NNNI-1
I-1
I0
tp67
bS'\x9b\x95\xcd\xe5\x96\x05\xbb?'
p68
tp69
Rp70
ag61
(g65
S'\xac<\xc9\xb2\x9e\xa6\xc9\xbf'
p71
tp72
Rp73
ag61
(g65
S"x\x8a'\xa5#G\xd2?"
p74
tp75
Rp76
abag0
(g38
g2
Ntp77
Rp78
(lp79
g61
(g65
S'\xf2L\xd8H|2\xde?'
p80
tp81
Rp82
ag61
(g65
S'\xf0\x99=\xc7D5\xec?'
p83
tp84
Rp85
ag61
(g65
S'3&QL\xc6\x83\x92\xbf'
p86
tp87
Rp88
ag61
(g65
S'\xa6\x1b\xa18\xe6>T\xbf'
p89
tp90
Rp91
abababsg13
I1
sbag0
(g8
g2
Ntp92
Rp93
(dp94
g12
g0
(g17
g2
Ntp95
Rp96
(lp97
g0
(g21
g2
Ntp98
Rp99
(lp100
I0
ag0
(g25
g2
Ntp101
Rp102
(lp103
I0
aI0
abaS'ar_marker_14'
p104
abag0
(g30
g2
Ntp105
Rp106
(lp107
g0
(g34
g2
Ntp108
Rp109
(lp110
g61
(g65
S'6\xce\xd0\x7f5\x05\xb8?'
p111
tp112
Rp113
ag61
(g65
S'\x80\xd9z\xc5\xb7\xf3\x97\xbf'
p114
tp115
Rp116
ag61
(g65
S'\x8eb\x84`\x9c\x9b\xd1?'
p117
tp118
Rp119
abag0
(g38
g2
Ntp120
Rp121
(lp122
g61
(g65
S'f\xb6}\x8a\x96\xf2\xde?'
p123
tp124
Rp125
ag61
(g65
S'- \xd0\x07k\xd5\xeb?'
p126
tp127
Rp128
ag61
(g65
S'\t\xc8\x979F\x16\xb6\xbf'
p129
tp130
Rp131
ag61
(g65
S'\x87P\xce\xed7\xdf\xa7\xbf'
p132
tp133
Rp134
abababsg13
I1
sbasb.