(lp0
ccopy_reg
_reconstructor
p1
(cpbd.command
Command
p2
c__builtin__
object
p3
Ntp4
Rp5
(dp6
S'tilt'
p7
NsS'height'
p8
NsS'alias'
p9
NsS'pose_stamped'
p10
g1
(cgeometry_msgs.msg._PoseStamped
PoseStamped
p11
g3
Ntp12
Rp13
(lp14
g1
(cstd_msgs.msg._Header
Header
p15
g3
Ntp16
Rp17
(lp18
I0
ag1
(cgenpy.rostime
Time
p19
g3
Ntp20
Rp21
(lp22
I0
aI0
abaS'base_link'
p23
abag1
(cgeometry_msgs.msg._Pose
Pose
p24
g3
Ntp25
Rp26
(lp27
g1
(cgeometry_msgs.msg._Point
Point
p28
g3
Ntp29
Rp30
(lp31
F0.23939105897128748
aF-0.14628702027552504
aF1.0325617714777335
abag1
(cgeometry_msgs.msg._Quaternion
Quaternion
p32
g3
Ntp33
Rp34
(lp35
F-0.638454017669366
aF0.05074195402092014
aF-0.7643722919995372
aF-0.07440914357361335
abababsS'type'
p36
I1
sS'pan'
p37
Nsbag1
(g2
g3
Ntp38
Rp39
(dp40
g7
Nsg8
Nsg9
Nsg10
g1
(g11
g3
Ntp41
Rp42
(lp43
g1
(g15
g3
Ntp44
Rp45
(lp46
I0
ag1
(g19
g3
Ntp47
Rp48
(lp49
I0
aI0
abaS'base_link'
p50
abag1
(g24
g3
Ntp51
Rp52
(lp53
g1
(g28
g3
Ntp54
Rp55
(lp56
F0.17625393938237766
aF-0.1869774504842007
aF1.0679899957863994
abag1
(g32
g3
Ntp57
Rp58
(lp59
F-0.7833554837661665
aF-0.0869831822730469
aF-0.5879734761388866
aF-0.1818661689602635
abababsg36
I1
sg37
Nsbag1
(g2
g3
Ntp60
Rp61
(dp62
g7
Nsg8
Nsg9
Nsg10
g1
(g11
g3
Ntp63
Rp64
(lp65
g1
(g15
g3
Ntp66
Rp67
(lp68
I0
ag1
(g19
g3
Ntp69
Rp70
(lp71
I0
aI0
abaS'base_link'
p72
abag1
(g24
g3
Ntp73
Rp74
(lp75
g1
(g28
g3
Ntp76
Rp77
(lp78
F0.2630235950471732
aF-0.23166205586837726
aF0.9984602677987641
abag1
(g32
g3
Ntp79
Rp80
(lp81
F-0.9557739050080046
aF0.029993105733578544
aF-0.1959389216462076
aF-0.21726618489384272
abababsg36
I1
sg37
Nsba.