(lp0
ccopy_reg
_reconstructor
p1
(cpbd.command
Command
p2
c__builtin__
object
p3
Ntp4
Rp5
(dp6
S'tilt'
p7
NsS'height'
p8
NsS'alias'
p9
NsS'pose_stamped'
p10
g1
(cgeometry_msgs.msg._PoseStamped
PoseStamped
p11
g3
Ntp12
Rp13
(lp14
g1
(cstd_msgs.msg._Header
Header
p15
g3
Ntp16
Rp17
(lp18
I0
ag1
(cgenpy.rostime
Time
p19
g3
Ntp20
Rp21
(lp22
I0
aI0
abaS'base_link'
p23
abag1
(cgeometry_msgs.msg._Pose
Pose
p24
g3
Ntp25
Rp26
(lp27
g1
(cgeometry_msgs.msg._Point
Point
p28
g3
Ntp29
Rp30
(lp31
F0.19010497603075932
aF-0.27312369163055905
aF0.8987079696198577
abag1
(cgeometry_msgs.msg._Quaternion
Quaternion
p32
g3
Ntp33
Rp34
(lp35
F-0.9938822854240295
aF0.04209438279950406
aF-0.08616166426178357
aF-0.05479263881833894
abababsS'type'
p36
I1
sS'pan'
p37
Nsba.