(lp0
ccopy_reg
_reconstructor
p1
(cpbd.command
Command
p2
c__builtin__
object
p3
Ntp4
Rp5
(dp6
S'pose_stamped'
p7
g1
(cgeometry_msgs.msg._PoseStamped
PoseStamped
p8
g3
Ntp9
Rp10
(lp11
g1
(cstd_msgs.msg._Header
Header
p12
g3
Ntp13
Rp14
(lp15
I0
ag1
(cgenpy.rostime
Time
p16
g3
Ntp17
Rp18
(lp19
I0
aI0
abaS'ar_marker_10'
p20
abag1
(cgeometry_msgs.msg._Pose
Pose
p21
g3
Ntp22
Rp23
(lp24
g1
(cgeometry_msgs.msg._Point
Point
p25
g3
Ntp26
Rp27
(lp28
cnumpy.core.multiarray
scalar
p29
(cnumpy
dtype
p30
(S'f8'
p31
I0
I1
tp32
Rp33
(I3
S'<'
p34
NNNI-1
I-1
I0
tp35
bS'v\xd0\xe8\xcbh1\xd9\xbf'
p36
tp37
Rp38
ag29
(g33
S'\xe8\x13\x16\xfa\xbc\xe0\x9a\xbf'
p39
tp40
Rp41
ag29
(g33
S'\xb0\x17t#d<\xa0?'
p42
tp43
Rp44
abag1
(cgeometry_msgs.msg._Quaternion
Quaternion
p45
g3
Ntp46
Rp47
(lp48
g29
(g33
S'\xc9,)\xac\xf1\xe6\xef?'
p49
tp50
Rp51
ag29
(g33
S'\xda~\xa0m\x06l\xa4?'
p52
tp53
Rp54
ag29
(g33
S'-x\x15\x82\x8c\xcb\xaf\xbf'
p55
tp56
Rp57
ag29
(g33
S'9\x07\xe5\x15\x19Q\x9a?'
p58
tp59
Rp60
abababsS'alias'
p61
NsS'type'
p62
I1
sbag1
(g2
g3
Ntp63
Rp64
(dp65
g7
g1
(g8
g3
Ntp66
Rp67
(lp68
g1
(g12
g3
Ntp69
Rp70
(lp71
I0
ag1
(g16
g3
Ntp72
Rp73
(lp74
I0
aI0
abaS'ar_marker_10'
p75
abag1
(g21
g3
Ntp76
Rp77
(lp78
g1
(g25
g3
Ntp79
Rp80
(lp81
g29
(g33
S'^\x94\x9a,\xf4\xca\xd4\xbf'
p82
tp83
Rp84
ag29
(g33
S'\x08}L>n\xdb\xa1?'
p85
tp86
Rp87
ag29
(g33
S'\x00\xc2\xd0h\xb4\x1b\x9f\xbf'
p88
tp89
Rp90
abag1
(g45
g3
Ntp91
Rp92
(lp93
g29
(g33
S'\xa8\xeb\xf0K\x81\xe8\xef?'
p94
tp95
Rp96
ag29
(g33
S'\x03\xb8\xdb^\xed\xf3\xb1\xbf'
p97
tp98
Rp99
ag29
(g33
S'T\xba\x10\xe3\x01\x1d\x9d\xbf'
p100
tp101
Rp102
ag29
(g33
S'\x08T\xc9A\xc4_T\xbf'
p103
tp104
Rp105
abababsg61
Nsg62
I1
sbag1
(g2
g3
Ntp106
Rp107
(dp108
g7
Nsg61
Nsg62
I3
sbag1
(g2
g3
Ntp109
Rp110
(dp111
g7
g1
(g8
g3
Ntp112
Rp113
(lp114
g1
(g12
g3
Ntp115
Rp116
(lp117
I0
ag1
(g16
g3
Ntp118
Rp119
(lp120
I0
aI0
abaS'base_link'
p121
abag1
(g21
g3
Ntp122
Rp123
(lp124
g1
(g25
g3
Ntp125
Rp126
(lp127
F0.35080305658520805
aF-0.3013343167582753
aF0.9306677631669273
abag1
(g45
g3
Ntp128
Rp129
(lp130
F-0.9980541371430802
aF0.028354287477712785
aF-0.04689680726168794
aF-0.029743288013821336
abababsg61
Nsg62
I1
sba.