ccopy_reg
_reconstructor
p0
(cpbd.program
Program
p1
c__builtin__
object
p2
Ntp3
Rp4
(dp5
S'commands'
p6
(lp7
g0
(cpbd.command
Command
p8
g2
Ntp9
Rp10
(dp11
S'pose_stamped'
p12
g0
(cgeometry_msgs.msg._PoseStamped
PoseStamped
p13
g2
Ntp14
Rp15
(lp16
g0
(cstd_msgs.msg._Header
Header
p17
g2
Ntp18
Rp19
(lp20
I0
ag0
(cgenpy.rostime
Time
p21
g2
Ntp22
Rp23
(lp24
I0
aI0
abaS'base_link'
p25
abag0
(cgeometry_msgs.msg._Pose
Pose
p26
g2
Ntp27
Rp28
(lp29
g0
(cgeometry_msgs.msg._Point
Point
p30
g2
Ntp31
Rp32
(lp33
F0.5781889380608946
aF-0.20900333926194758
aF0.8606496431421441
abag0
(cgeometry_msgs.msg._Quaternion
Quaternion
p34
g2
Ntp35
Rp36
(lp37
F0.08843034866287389
aF-0.011260156924424499
aF-0.11256684714485343
aF-0.9896373008457529
abababsS'alias'
p38
NsS'type'
p39
I1
sbag0
(g8
g2
Ntp40
Rp41
(dp42
g12
g0
(g13
g2
Ntp43
Rp44
(lp45
g0
(g17
g2
Ntp46
Rp47
(lp48
I0
ag0
(g21
g2
Ntp49
Rp50
(lp51
I0
aI0
abaS'base_link'
p52
abag0
(g26
g2
Ntp53
Rp54
(lp55
g0
(g30
g2
Ntp56
Rp57
(lp58
F0.6235266025633187
aF-0.21207431158831905
aF0.8421937974220699
abag0
(g34
g2
Ntp59
Rp60
(lp61
F0.10352102489365567
aF-0.02917411002958803
aF-0.09299220341590175
aF-0.9898407542694958
abababsg38
Nsg39
I1
sbag0
(g8
g2
Ntp62
Rp63
(dp64
g12
g0
(g13
g2
Ntp65
Rp66
(lp67
g0
(g17
g2
Ntp68
Rp69
(lp70
I0
ag0
(g21
g2
Ntp71
Rp72
(lp73
I0
aI0
abaS'base_link'
p74
abag0
(g26
g2
Ntp75
Rp76
(lp77
g0
(g30
g2
Ntp78
Rp79
(lp80
F0.5188463817334914
aF-0.22768314028352135
aF0.8685215712600962
abag0
(g34
g2
Ntp81
Rp82
(lp83
F0.07384424515618651
aF-0.007700350717620107
aF-0.10825625787199439
aF-0.9913467176965338
abababsg38
Nsg39
I1
sbasS'orientation_constraint'
p84
Nsb.