ccopy_reg
_reconstructor
p0
(c__main__
Program
p1
c__builtin__
object
p2
Ntp3
Rp4
(dp5
S'commands'
p6
(lp7
g0
(c__main__
Command
p8
g2
Ntp9
Rp10
(dp11
S'pose_stamped'
p12
g0
(cgeometry_msgs.msg._PoseStamped
PoseStamped
p13
g2
Ntp14
Rp15
(lp16
g0
(cstd_msgs.msg._Header
Header
p17
g2
Ntp18
Rp19
(lp20
I0
ag0
(cgenpy.rostime
Time
p21
g2
Ntp22
Rp23
(lp24
I0
aI0
abaS'ar_marker_15'
p25
abag0
(cgeometry_msgs.msg._Pose
Pose
p26
g2
Ntp27
Rp28
(lp29
g0
(cgeometry_msgs.msg._Point
Point
p30
g2
Ntp31
Rp32
(lp33
cnumpy.core.multiarray
scalar
p34
(cnumpy
dtype
p35
(S'f8'
p36
I0
I1
tp37
Rp38
(I3
S'<'
p39
NNNI-1
I-1
I0
tp40
bS'\\b\xe1\xc7f\x00\xcb?'
p41
tp42
Rp43
ag34
(g38
S'\x00\xa7\xc1k#1\xab\xbf'
p44
tp45
Rp46
ag34
(g38
S'\x98\xa5\x88_\xb0\xa2\xbc?'
p47
tp48
Rp49
abag0
(cgeometry_msgs.msg._Quaternion
Quaternion
p50
g2
Ntp51
Rp52
(lp53
g34
(g38
S'\xae/c\xdf\xb8\xc5\xb1\xbf'
p54
tp55
Rp56
ag34
(g38
S'\xeb\\9\xd7\xfa}\x95\xbf'
p57
tp58
Rp59
ag34
(g38
S'P]\x96\xebK\x95\xef?'
p60
tp61
Rp62
ag34
(g38
S'MYi\xe7ya\xc2?'
p63
tp64
Rp65
abababsS'type'
p66
I1
sbag0
(g8
g2
Ntp67
Rp68
(dp69
g12
Nsg66
I2
sbag0
(g8
g2
Ntp70
Rp71
(dp72
g12
Nsg66
I3
sbag0
(g8
g2
Ntp73
Rp74
(dp75
g12
g0
(g13
g2
Ntp76
Rp77
(lp78
g0
(g17
g2
Ntp79
Rp80
(lp81
I0
ag0
(g21
g2
Ntp82
Rp83
(lp84
I0
aI0
abaS'base_link'
p85
abag0
(g26
g2
Ntp86
Rp87
(lp88
g0
(g30
g2
Ntp89
Rp90
(lp91
F0.4063591848585034
aF-0.245002970371353
aF1.1384383502254252
abag0
(g50
g2
Ntp92
Rp93
(lp94
F0.05267704872248875
aF-0.038210174892829865
aF-0.6300449013465946
aF-0.773827198643023
abababsg66
I1
sbasb.