(lp0
ccopy_reg
_reconstructor
p1
(cpbd.command
Command
p2
c__builtin__
object
p3
Ntp4
Rp5
(dp6
S'pose_stamped'
p7
g1
(cgeometry_msgs.msg._PoseStamped
PoseStamped
p8
g3
Ntp9
Rp10
(lp11
g1
(cstd_msgs.msg._Header
Header
p12
g3
Ntp13
Rp14
(lp15
I0
ag1
(cgenpy.rostime
Time
p16
g3
Ntp17
Rp18
(lp19
I0
aI0
abaS'base_link'
p20
abag1
(cgeometry_msgs.msg._Pose
Pose
p21
g3
Ntp22
Rp23
(lp24
g1
(cgeometry_msgs.msg._Point
Point
p25
g3
Ntp26
Rp27
(lp28
F0.28111607729243276
aF0.31037138866501146
aF0.8181157958079934
abag1
(cgeometry_msgs.msg._Quaternion
Quaternion
p29
g3
Ntp30
Rp31
(lp32
F0.6942836300134508
aF0.5151406642590899
aF0.4348063939568773
aF-0.2520788307182221
abababsS'alias'
p33
NsS'type'
p34
I1
sbag1
(g2
g3
Ntp35
Rp36
(dp37
g7
g1
(g8
g3
Ntp38
Rp39
(lp40
g1
(g12
g3
Ntp41
Rp42
(lp43
I0
ag1
(g16
g3
Ntp44
Rp45
(lp46
I0
aI0
abaS'ar_marker_0'
p47
abag1
(g21
g3
Ntp48
Rp49
(lp50
g1
(g25
g3
Ntp51
Rp52
(lp53
cnumpy.core.multiarray
scalar
p54
(cnumpy
dtype
p55
(S'f8'
p56
I0
I1
tp57
Rp58
(I3
S'<'
p59
NNNI-1
I-1
I0
tp60
bS'p\xd2`X\xa3\xcc\xc4\xbf'
p61
tp62
Rp63
ag54
(g58
S'\x1e\xbeXX\xba\xf7\xcd?'
p64
tp65
Rp66
ag54
(g58
S'\x92CB\xde?^\xda?'
p67
tp68
Rp69
abag1
(g29
g3
Ntp70
Rp71
(lp72
g54
(g58
S'\xb6\x03J\xca\x88o\xeb?'
p73
tp74
Rp75
ag54
(g58
S'\x9c*\xf0\xc6]\xcd\x80?'
p76
tp77
Rp78
ag54
(g58
S'\x00\x8cy%LA\xd6\xbf'
p79
tp80
Rp81
ag54
(g58
S'\xfe%\xa6\x8c\xf3G\xd8\xbf'
p82
tp83
Rp84
abababsg33
Nsg34
I1
sbag1
(g2
g3
Ntp85
Rp86
(dp87
g7
g1
(g8
g3
Ntp88
Rp89
(lp90
g1
(g12
g3
Ntp91
Rp92
(lp93
I0
ag1
(g16
g3
Ntp94
Rp95
(lp96
I0
aI0
abaS'ar_marker_0'
p97
abag1
(g21
g3
Ntp98
Rp99
(lp100
g1
(g25
g3
Ntp101
Rp102
(lp103
g54
(g58
S'\xad\xfb\x8fG*\xcc\xd8\xbf'
p104
tp105
Rp106
ag54
(g58
S'\x88r\x96\xa8l[\xc1\xbf'
p107
tp108
Rp109
ag54
(g58
S'\x0csW\x05S\xc4\xe5?'
p110
tp111
Rp112
abag1
(g29
g3
Ntp113
Rp114
(lp115
g54
(g58
S'\x9e[\xd6\xe5\x9a\xd5\xdc?'
p116
tp117
Rp118
ag54
(g58
S'm\x99\x99<\x17\xa0\xe3?'
p119
tp120
Rp121
ag54
(g58
S'\xee\xf3\xae\x8f\xfdK\xe0\xbf'
p122
tp123
Rp124
ag54
(g58
S'\xdc\xae\r\xf0\xc8\xb8\xd9\xbf'
p125
tp126
Rp127
abababsg33
Nsg34
I1
sba.