ccopy_reg
_reconstructor
p0
(c__main__
Program
p1
c__builtin__
object
p2
Ntp3
Rp4
(dp5
S'commands'
p6
(lp7
g0
(c__main__
Command
p8
g2
Ntp9
Rp10
(dp11
S'pose_stamped'
p12
g0
(cgeometry_msgs.msg._PoseStamped
PoseStamped
p13
g2
Ntp14
Rp15
(lp16
g0
(cstd_msgs.msg._Header
Header
p17
g2
Ntp18
Rp19
(lp20
I0
ag0
(cgenpy.rostime
Time
p21
g2
Ntp22
Rp23
(lp24
I0
aI0
abaS'ar_marker_14'
p25
abag0
(cgeometry_msgs.msg._Pose
Pose
p26
g2
Ntp27
Rp28
(lp29
g0
(cgeometry_msgs.msg._Point
Point
p30
g2
Ntp31
Rp32
(lp33
F-0.06419253521605062
aF-0.3097485873289454
aF0.017896947820085884
abag0
(cgeometry_msgs.msg._Quaternion
Quaternion
p34
g2
Ntp35
Rp36
(lp37
F-0.013688914928433826
aF-0.7250899770369963
aF0.022667219000778227
aF-0.6881448510243617
abababsS'type'
p38
I1
sbag0
(g8
g2
Ntp39
Rp40
(dp41
g12
g0
(g13
g2
Ntp42
Rp43
(lp44
g0
(g17
g2
Ntp45
Rp46
(lp47
I0
ag0
(g21
g2
Ntp48
Rp49
(lp50
I0
aI0
abaS'ar_marker_14'
p51
abag0
(g26
g2
Ntp52
Rp53
(lp54
g0
(g30
g2
Ntp55
Rp56
(lp57
F-0.1483917474967571
aF0.034942995600828586
aF0.06251165623948646
abag0
(g34
g2
Ntp58
Rp59
(lp60
F-0.4774065394554208
aF-0.4926486924901801
aF0.5205485357064175
aF-0.5083399294240233
abababsg38
I1
sbag0
(g8
g2
Ntp61
Rp62
(dp63
g12
g0
(g13
g2
Ntp64
Rp65
(lp66
g0
(g17
g2
Ntp67
Rp68
(lp69
I0
ag0
(g21
g2
Ntp70
Rp71
(lp72
I0
aI0
abaS'ar_marker_14'
p73
abag0
(g26
g2
Ntp74
Rp75
(lp76
g0
(g30
g2
Ntp77
Rp78
(lp79
F-0.2671028207737671
aF0.20502205931436623
aF0.17773469632528105
abag0
(g34
g2
Ntp80
Rp81
(lp82
F-0.4814398253328732
aF-0.5992109347034649
aF0.5122347776915133
aF-0.38311549543000367
abababsg38
I1
sbag0
(g8
g2
Ntp83
Rp84
(dp85
g12
g0
(g13
g2
Ntp86
Rp87
(lp88
g0
(g17
g2
Ntp89
Rp90
(lp91
I0
ag0
(g21
g2
Ntp92
Rp93
(lp94
I0
aI0
abaS'ar_marker_14'
p95
abag0
(g26
g2
Ntp96
Rp97
(lp98
g0
(g30
g2
Ntp99
Rp100
(lp101
F0.40571993691603225
aF0.3012300811205574
aF-0.12351349616689972
abag0
(g34
g2
Ntp102
Rp103
(lp104
F-0.20363510264024617
aF-0.7533545091466185
aF0.5803883918471685
aF-0.23267798161882797
abababsg38
I1
sbag0
(g8
g2
Ntp105
Rp106
(dp107
g12
g0
(g13
g2
Ntp108
Rp109
(lp110
g0
(g17
g2
Ntp111
Rp112
(lp113
I0
ag0
(g21
g2
Ntp114
Rp115
(lp116
I0
aI0
abaS'ar_marker_14'
p117
abag0
(g26
g2
Ntp118
Rp119
(lp120
g0
(g30
g2
Ntp121
Rp122
(lp123
F0.326889480598167
aF0.09895300980920108
aF-0.11011466338306436
abag0
(g34
g2
Ntp124
Rp125
(lp126
F0.03491092437231974
aF-0.7421239663308489
aF0.6446279300296156
aF-0.18024449445842416
abababsg38
I1
sbag0
(g8
g2
Ntp127
Rp128
(dp129
g12
g0
(g13
g2
Ntp130
Rp131
(lp132
g0
(g17
g2
Ntp133
Rp134
(lp135
I0
ag0
(g21
g2
Ntp136
Rp137
(lp138
I0
aI0
abaS'ar_marker_14'
p139
abag0
(g26
g2
Ntp140
Rp141
(lp142
g0
(g30
g2
Ntp143
Rp144
(lp145
F0.2755481452063222
aF0.08468701198654238
aF-0.12686653928267666
abag0
(g34
g2
Ntp146
Rp147
(lp148
F0.08705987124827666
aF-0.7710891311728166
aF0.6243087027266442
aF-0.08989312712971596
abababsg38
I1
sbasb.