ccopy_reg
_reconstructor
p0
(c__main__
Program
p1
c__builtin__
object
p2
Ntp3
Rp4
(dp5
S'commands'
p6
(lp7
g0
(c__main__
Command
p8
g2
Ntp9
Rp10
(dp11
S'pose_stamped'
p12
g0
(cgeometry_msgs.msg._PoseStamped
PoseStamped
p13
g2
Ntp14
Rp15
(lp16
g0
(cstd_msgs.msg._Header
Header
p17
g2
Ntp18
Rp19
(lp20
I0
ag0
(cgenpy.rostime
Time
p21
g2
Ntp22
Rp23
(lp24
I0
aI0
abaS'ar_marker_14'
p25
abag0
(cgeometry_msgs.msg._Pose
Pose
p26
g2
Ntp27
Rp28
(lp29
g0
(cgeometry_msgs.msg._Point
Point
p30
g2
Ntp31
Rp32
(lp33
F-0.06419253521605062
aF-0.3097485873289454
aF0.017896947820085884
abag0
(cgeometry_msgs.msg._Quaternion
Quaternion
p34
g2
Ntp35
Rp36
(lp37
F-0.013688914928433826
aF-0.7250899770369963
aF0.022667219000778227
aF-0.6881448510243617
abababsS'type'
p38
I1
sbag0
(g8
g2
Ntp39
Rp40
(dp41
g12
g0
(g13
g2
Ntp42
Rp43
(lp44
g0
(g17
g2
Ntp45
Rp46
(lp47
I0
ag0
(g21
g2
Ntp48
Rp49
(lp50
I0
aI0
abaS'ar_marker_14'
p51
abag0
(g26
g2
Ntp52
Rp53
(lp54
g0
(g30
g2
Ntp55
Rp56
(lp57
F-0.1483917474967571
aF0.034942995600828586
aF0.06251165623948646
abag0
(g34
g2
Ntp58
Rp59
(lp60
F-0.4774065394554208
aF-0.4926486924901801
aF0.5205485357064175
aF-0.5083399294240233
abababsg38
I1
sbag0
(g8
g2
Ntp61
Rp62
(dp63
g12
g0
(g13
g2
Ntp64
Rp65
(lp66
g0
(g17
g2
Ntp67
Rp68
(lp69
I0
ag0
(g21
g2
Ntp70
Rp71
(lp72
I0
aI0
abaS'ar_marker_14'
p73
abag0
(g26
g2
Ntp74
Rp75
(lp76
g0
(g30
g2
Ntp77
Rp78
(lp79
F-0.2671028207737671
aF0.20502205931436623
aF0.17773469632528105
abag0
(g34
g2
Ntp80
Rp81
(lp82
F-0.4814398253328732
aF-0.5992109347034649
aF0.5122347776915133
aF-0.38311549543000367
abababsg38
I1
sbag0
(g8
g2
Ntp83
Rp84
(dp85
g12
g0
(g13
g2
Ntp86
Rp87
(lp88
g0
(g17
g2
Ntp89
Rp90
(lp91
I0
ag0
(g21
g2
Ntp92
Rp93
(lp94
I0
aI0
abaS'ar_marker_14'
p95
abag0
(g26
g2
Ntp96
Rp97
(lp98
g0
(g30
g2
Ntp99
Rp100
(lp101
F0.40571993691603225
aF0.3012300811205574
aF-0.12351349616689972
abag0
(g34
g2
Ntp102
Rp103
(lp104
F-0.20363510264024617
aF-0.7533545091466185
aF0.5803883918471685
aF-0.23267798161882797
abababsg38
I1
sbag0
(g8
g2
Ntp105
Rp106
(dp107
g12
g0
(g13
g2
Ntp108
Rp109
(lp110
g0
(g17
g2
Ntp111
Rp112
(lp113
I0
ag0
(g21
g2
Ntp114
Rp115
(lp116
I0
aI0
abaS'ar_marker_14'
p117
abag0
(g26
g2
Ntp118
Rp119
(lp120
g0
(g30
g2
Ntp121
Rp122
(lp123
F0.326889480598167
aF0.09895300980920108
aF-0.11011466338306436
abag0
(g34
g2
Ntp124
Rp125
(lp126
F0.03491092437231974
aF-0.7421239663308489
aF0.6446279300296156
aF-0.18024449445842416
abababsg38
I1
sbag0
(g8
g2
Ntp127
Rp128
(dp129
g12
g0
(g13
g2
Ntp130
Rp131
(lp132
g0
(g17
g2
Ntp133
Rp134
(lp135
I0
ag0
(g21
g2
Ntp136
Rp137
(lp138
I0
aI0
abaS'ar_marker_14'
p139
abag0
(g26
g2
Ntp140
Rp141
(lp142
g0
(g30
g2
Ntp143
Rp144
(lp145
F0.2755481452063222
aF0.08468701198654238
aF-0.12686653928267666
abag0
(g34
g2
Ntp146
Rp147
(lp148
F0.08705987124827666
aF-0.7710891311728166
aF0.6243087027266442
aF-0.08989312712971596
abababsg38
I1
sbag0
(g8
g2
Ntp149
Rp150
(dp151
g12
g0
(g13
g2
Ntp152
Rp153
(lp154
g0
(g17
g2
Ntp155
Rp156
(lp157
I0
ag0
(g21
g2
Ntp158
Rp159
(lp160
I0
aI0
abaS'ar_marker_14'
p161
abag0
(g26
g2
Ntp162
Rp163
(lp164
g0
(g30
g2
Ntp165
Rp166
(lp167
F0.30448780315705193
aF0.3480518159305841
aF-0.058682825436079694
abag0
(g34
g2
Ntp168
Rp169
(lp170
F0.010568591762707316
aF-0.8464750089897741
aF0.5315721363230329
aF-0.028274156201091576
abababsg38
I1
sbag0
(g8
g2
Ntp171
Rp172
(dp173
g12
g0
(g13
g2
Ntp174
Rp175
(lp176
g0
(g17
g2
Ntp177
Rp178
(lp179
I0
ag0
(g21
g2
Ntp180
Rp181
(lp182
I0
aI0
abaS'ar_marker_14'
p183
abag0
(g26
g2
Ntp184
Rp185
(lp186
g0
(g30
g2
Ntp187
Rp188
(lp189
F-0.26098980540333105
aF0.16936188303210642
aF0.25748567075267115
abag0
(g34
g2
Ntp190
Rp191
(lp192
F-0.481140451357773
aF-0.6422388429465846
aF0.5134847311078368
aF-0.3039186825402195
abababsg38
I1
sbag0
(g8
g2
Ntp193
Rp194
(dp195
g12
g0
(g13
g2
Ntp196
Rp197
(lp198
g0
(g17
g2
Ntp199
Rp200
(lp201
I0
ag0
(g21
g2
Ntp202
Rp203
(lp204
I0
aI0
abaS'ar_marker_14'
p205
abag0
(g26
g2
Ntp206
Rp207
(lp208
g0
(g30
g2
Ntp209
Rp210
(lp211
F-0.17090726450059668
aF0.011992386645224618
aF0.07492006654718067
abag0
(g34
g2
Ntp212
Rp213
(lp214
F-0.4631055393647894
aF-0.5793613206317938
aF0.5100103835091956
aF-0.4356180991169146
abababsg38
I1
sbag0
(g8
g2
Ntp215
Rp216
(dp217
g12
g0
(g13
g2
Ntp218
Rp219
(lp220
g0
(g17
g2
Ntp221
Rp222
(lp223
I0
ag0
(g21
g2
Ntp224
Rp225
(lp226
I0
aI0
abaS'ar_marker_14'
p227
abag0
(g26
g2
Ntp228
Rp229
(lp230
g0
(g30
g2
Ntp231
Rp232
(lp233
F-0.14400408846737012
aF0.02994912690536089
aF-0.027860963342499545
abag0
(g34
g2
Ntp234
Rp235
(lp236
F-0.5135707856705751
aF-0.5239970113347957
aF0.4912607403085797
aF-0.46939862084307005
abababsg38
I1
sbasb.