(lp0
ccopy_reg
_reconstructor
p1
(cpbd.command
Command
p2
c__builtin__
object
p3
Ntp4
Rp5
(dp6
S'pose_stamped'
p7
g1
(cgeometry_msgs.msg._PoseStamped
PoseStamped
p8
g3
Ntp9
Rp10
(lp11
g1
(cstd_msgs.msg._Header
Header
p12
g3
Ntp13
Rp14
(lp15
I0
ag1
(cgenpy.rostime
Time
p16
g3
Ntp17
Rp18
(lp19
I0
aI0
abaS'base_link'
p20
abag1
(cgeometry_msgs.msg._Pose
Pose
p21
g3
Ntp22
Rp23
(lp24
g1
(cgeometry_msgs.msg._Point
Point
p25
g3
Ntp26
Rp27
(lp28
F0.39617000619635023
aF-0.2706065201156218
aF1.0793912748660577
abag1
(cgeometry_msgs.msg._Quaternion
Quaternion
p29
g3
Ntp30
Rp31
(lp32
F0.8722025730974544
aF-0.11895648850199995
aF0.4182228451006158
aF0.22405730776165209
abababsS'alias'
p33
NsS'type'
p34
I1
sbag1
(g2
g3
Ntp35
Rp36
(dp37
g7
g1
(g8
g3
Ntp38
Rp39
(lp40
g1
(g12
g3
Ntp41
Rp42
(lp43
I0
ag1
(g16
g3
Ntp44
Rp45
(lp46
I0
aI0
abaS'base_link'
p47
abag1
(g21
g3
Ntp48
Rp49
(lp50
g1
(g25
g3
Ntp51
Rp52
(lp53
F0.6495245615033174
aF-0.09041856206481147
aF0.8648260559528127
abag1
(g29
g3
Ntp54
Rp55
(lp56
F0.0248718356479844
aF-0.006218178845620682
aF0.13085522027207144
aF0.9910699457510005
abababsg33
Nsg34
I1
sbag1
(g2
g3
Ntp57
Rp58
(dp59
g7
g1
(g8
g3
Ntp60
Rp61
(lp62
g1
(g12
g3
Ntp63
Rp64
(lp65
I0
ag1
(g16
g3
Ntp66
Rp67
(lp68
I0
aI0
abaS'base_link'
p69
abag1
(g21
g3
Ntp70
Rp71
(lp72
g1
(g25
g3
Ntp73
Rp74
(lp75
F0.6688081802136956
aF-0.08305993840345731
aF0.8439724472902559
abag1
(g29
g3
Ntp76
Rp77
(lp78
F-0.044375814514719385
aF0.004784297207151523
aF-0.09965783510966347
aF-0.9940202279066782
abababsg33
Nsg34
I1
sbag1
(g2
g3
Ntp79
Rp80
(dp81
g7
g1
(g8
g3
Ntp82
Rp83
(lp84
g1
(g12
g3
Ntp85
Rp86
(lp87
I0
ag1
(g16
g3
Ntp88
Rp89
(lp90
I0
aI0
abaS'base_link'
p91
abag1
(g21
g3
Ntp92
Rp93
(lp94
g1
(g25
g3
Ntp95
Rp96
(lp97
F0.45401784542334506
aF-0.16432911821094898
aF0.8536755572735988
abag1
(g29
g3
Ntp98
Rp99
(lp100
F-0.04687926176382215
aF0.012341277182003785
aF-0.1341633565812103
aF-0.9897728130459325
abababsg33
Nsg34
I1
sbag1
(g2
g3
Ntp101
Rp102
(dp103
g7
g1
(g8
g3
Ntp104
Rp105
(lp106
g1
(g12
g3
Ntp107
Rp108
(lp109
I0
ag1
(g16
g3
Ntp110
Rp111
(lp112
I0
aI0
abaS'base_link'
p113
abag1
(g21
g3
Ntp114
Rp115
(lp116
g1
(g25
g3
Ntp117
Rp118
(lp119
F0.6437920883643464
aF-0.09489460982391676
aF0.9071794044027373
abag1
(g29
g3
Ntp120
Rp121
(lp122
F0.10956218922736244
aF0.13722017465931313
aF-0.13431472428073576
aF-0.9752570457061897
abababsg33
S'base_lsp'
p123
sg34
I1
sbag1
(g2
g3
Ntp124
Rp125
(dp126
g7
g1
(g8
g3
Ntp127
Rp128
(lp129
g1
(g12
g3
Ntp130
Rp131
(lp132
I0
ag1
(g16
g3
Ntp133
Rp134
(lp135
I0
aI0
abaS'base_link'
p136
abag1
(g21
g3
Ntp137
Rp138
(lp139
g1
(g25
g3
Ntp140
Rp141
(lp142
F0.6367385375930679
aF0.02763359007938692
aF0.9015472339630025
abag1
(g29
g3
Ntp143
Rp144
(lp145
F0.030007256602401174
aF0.15324174520583458
aF-0.2023691930273379
aF-0.9667798310840646
abababsg33
Nsg34
I1
sbag1
(g2
g3
Ntp146
Rp147
(dp148
g7
g1
(g8
g3
Ntp149
Rp150
(lp151
g1
(g12
g3
Ntp152
Rp153
(lp154
I0
ag1
(g16
g3
Ntp155
Rp156
(lp157
I0
aI0
abaS'base_link'
p158
abag1
(g21
g3
Ntp159
Rp160
(lp161
g1
(g25
g3
Ntp162
Rp163
(lp164
F0.606396827578762
aF0.19082413576682222
aF0.9017542655538209
abag1
(g29
g3
Ntp165
Rp166
(lp167
F0.008148372979795402
aF0.15593899211187812
aF-0.3333743268510258
aF-0.9297731943616891
abababsg33
Nsg34
I1
sbag1
(g2
g3
Ntp168
Rp169
(dp170
g7
g1
(g8
g3
Ntp171
Rp172
(lp173
g1
(g12
g3
Ntp174
Rp175
(lp176
I0
ag1
(g16
g3
Ntp177
Rp178
(lp179
I0
aI0
abaS'base_link'
p180
abag1
(g21
g3
Ntp181
Rp182
(lp183
g1
(g25
g3
Ntp184
Rp185
(lp186
F0.5657916701116776
aF-0.18130374865493587
aF0.9123294405558244
abag1
(g29
g3
Ntp187
Rp188
(lp189
F0.03935554832200301
aF0.09956205673895566
aF-0.10203610712870614
aF-0.9890031195684885
abababsg33
Nsg34
I1
sba.